
Servotest.elf:     file format elf32-avr

Sections:
Idx Name          Size      VMA       LMA       File off  Algn
  0 .data         0000000a  00800100  00000d92  00000e26  2**0
                  CONTENTS, ALLOC, LOAD, DATA
  1 .text         00000d92  00000000  00000000  00000094  2**1
                  CONTENTS, ALLOC, LOAD, READONLY, CODE
  2 .bss          0000000e  0080010a  0080010a  00000e30  2**0
                  ALLOC
  3 .comment      00000030  00000000  00000000  00000e30  2**0
                  CONTENTS, READONLY
  4 .note.gnu.avr.deviceinfo 00000040  00000000  00000000  00000e60  2**2
                  CONTENTS, READONLY
  5 .debug_aranges 000000e0  00000000  00000000  00000ea0  2**0
                  CONTENTS, READONLY, DEBUGGING
  6 .debug_info   0000141b  00000000  00000000  00000f80  2**0
                  CONTENTS, READONLY, DEBUGGING
  7 .debug_abbrev 000009d5  00000000  00000000  0000239b  2**0
                  CONTENTS, READONLY, DEBUGGING
  8 .debug_line   000009eb  00000000  00000000  00002d70  2**0
                  CONTENTS, READONLY, DEBUGGING
  9 .debug_frame  000002e0  00000000  00000000  0000375c  2**2
                  CONTENTS, READONLY, DEBUGGING
 10 .debug_str    000006ac  00000000  00000000  00003a3c  2**0
                  CONTENTS, READONLY, DEBUGGING
 11 .debug_loc    00000aa0  00000000  00000000  000040e8  2**0
                  CONTENTS, READONLY, DEBUGGING
 12 .debug_ranges 000000d0  00000000  00000000  00004b88  2**0
                  CONTENTS, READONLY, DEBUGGING

Disassembly of section .text:

00000000 <__vectors>:
   0:	45 c0       	rjmp	.+138    	; 0x8c <__ctors_end>
   2:	00 00       	nop
   4:	60 c0       	rjmp	.+192    	; 0xc6 <__bad_interrupt>
   6:	00 00       	nop
   8:	5e c0       	rjmp	.+188    	; 0xc6 <__bad_interrupt>
   a:	00 00       	nop
   c:	5c c0       	rjmp	.+184    	; 0xc6 <__bad_interrupt>
   e:	00 00       	nop
  10:	5a c0       	rjmp	.+180    	; 0xc6 <__bad_interrupt>
  12:	00 00       	nop
  14:	58 c0       	rjmp	.+176    	; 0xc6 <__bad_interrupt>
  16:	00 00       	nop
  18:	56 c0       	rjmp	.+172    	; 0xc6 <__bad_interrupt>
  1a:	00 00       	nop
  1c:	54 c0       	rjmp	.+168    	; 0xc6 <__bad_interrupt>
  1e:	00 00       	nop
  20:	52 c0       	rjmp	.+164    	; 0xc6 <__bad_interrupt>
  22:	00 00       	nop
  24:	50 c0       	rjmp	.+160    	; 0xc6 <__bad_interrupt>
  26:	00 00       	nop
  28:	4e c0       	rjmp	.+156    	; 0xc6 <__bad_interrupt>
  2a:	00 00       	nop
  2c:	4c c0       	rjmp	.+152    	; 0xc6 <__bad_interrupt>
  2e:	00 00       	nop
  30:	4a c0       	rjmp	.+148    	; 0xc6 <__bad_interrupt>
  32:	00 00       	nop
  34:	48 c0       	rjmp	.+144    	; 0xc6 <__bad_interrupt>
  36:	00 00       	nop
  38:	46 c0       	rjmp	.+140    	; 0xc6 <__bad_interrupt>
  3a:	00 00       	nop
  3c:	44 c0       	rjmp	.+136    	; 0xc6 <__bad_interrupt>
  3e:	00 00       	nop
  40:	42 c0       	rjmp	.+132    	; 0xc6 <__bad_interrupt>
  42:	00 00       	nop
  44:	40 c0       	rjmp	.+128    	; 0xc6 <__bad_interrupt>
  46:	00 00       	nop
  48:	3e c0       	rjmp	.+124    	; 0xc6 <__bad_interrupt>
  4a:	00 00       	nop
  4c:	e6 c2       	rjmp	.+1484   	; 0x61a <__vector_19>
  4e:	00 00       	nop
  50:	3a c0       	rjmp	.+116    	; 0xc6 <__bad_interrupt>
  52:	00 00       	nop
  54:	38 c0       	rjmp	.+112    	; 0xc6 <__bad_interrupt>
  56:	00 00       	nop
  58:	36 c0       	rjmp	.+108    	; 0xc6 <__bad_interrupt>
  5a:	00 00       	nop
  5c:	34 c0       	rjmp	.+104    	; 0xc6 <__bad_interrupt>
  5e:	00 00       	nop
  60:	32 c0       	rjmp	.+100    	; 0xc6 <__bad_interrupt>
  62:	00 00       	nop
  64:	30 c0       	rjmp	.+96     	; 0xc6 <__bad_interrupt>
  66:	00 00       	nop
  68:	2e c0       	rjmp	.+92     	; 0xc6 <__bad_interrupt>
  6a:	00 00       	nop
  6c:	2c c0       	rjmp	.+88     	; 0xc6 <__bad_interrupt>
  6e:	00 00       	nop
  70:	2a c0       	rjmp	.+84     	; 0xc6 <__bad_interrupt>
  72:	00 00       	nop
  74:	28 c0       	rjmp	.+80     	; 0xc6 <__bad_interrupt>
  76:	00 00       	nop
  78:	26 c0       	rjmp	.+76     	; 0xc6 <__bad_interrupt>
  7a:	00 00       	nop
  7c:	24 c0       	rjmp	.+72     	; 0xc6 <__bad_interrupt>
  7e:	00 00       	nop
  80:	22 c0       	rjmp	.+68     	; 0xc6 <__bad_interrupt>
  82:	00 00       	nop
  84:	20 c0       	rjmp	.+64     	; 0xc6 <__bad_interrupt>
  86:	00 00       	nop
  88:	1e c0       	rjmp	.+60     	; 0xc6 <__bad_interrupt>
	...

0000008c <__ctors_end>:
  8c:	11 24       	eor	r1, r1
  8e:	1f be       	out	0x3f, r1	; 63
  90:	cf ef       	ldi	r28, 0xFF	; 255
  92:	d0 e4       	ldi	r29, 0x40	; 64
  94:	de bf       	out	0x3e, r29	; 62
  96:	cd bf       	out	0x3d, r28	; 61

00000098 <__do_copy_data>:
  98:	11 e0       	ldi	r17, 0x01	; 1
  9a:	a0 e0       	ldi	r26, 0x00	; 0
  9c:	b1 e0       	ldi	r27, 0x01	; 1
  9e:	e2 e9       	ldi	r30, 0x92	; 146
  a0:	fd e0       	ldi	r31, 0x0D	; 13
  a2:	00 e0       	ldi	r16, 0x00	; 0
  a4:	0b bf       	out	0x3b, r16	; 59
  a6:	02 c0       	rjmp	.+4      	; 0xac <__do_copy_data+0x14>
  a8:	07 90       	elpm	r0, Z+
  aa:	0d 92       	st	X+, r0
  ac:	aa 30       	cpi	r26, 0x0A	; 10
  ae:	b1 07       	cpc	r27, r17
  b0:	d9 f7       	brne	.-10     	; 0xa8 <__do_copy_data+0x10>

000000b2 <__do_clear_bss>:
  b2:	21 e0       	ldi	r18, 0x01	; 1
  b4:	aa e0       	ldi	r26, 0x0A	; 10
  b6:	b1 e0       	ldi	r27, 0x01	; 1
  b8:	01 c0       	rjmp	.+2      	; 0xbc <.do_clear_bss_start>

000000ba <.do_clear_bss_loop>:
  ba:	1d 92       	st	X+, r1

000000bc <.do_clear_bss_start>:
  bc:	a8 31       	cpi	r26, 0x18	; 24
  be:	b2 07       	cpc	r27, r18
  c0:	e1 f7       	brne	.-8      	; 0xba <.do_clear_bss_loop>
  c2:	3b d3       	rcall	.+1654   	; 0x73a <main>
  c4:	64 c6       	rjmp	.+3272   	; 0xd8e <_exit>

000000c6 <__bad_interrupt>:
  c6:	9c cf       	rjmp	.-200    	; 0x0 <__vectors>

000000c8 <USART_Init>:
		load_servo(ID2, angle2);
		action();

	}	
	
}
  c8:	10 92 c5 00 	sts	0x00C5, r1	; 0x8000c5 <__TEXT_REGION_LENGTH__+0x7e00c5>
  cc:	80 93 c4 00 	sts	0x00C4, r24	; 0x8000c4 <__TEXT_REGION_LENGTH__+0x7e00c4>
  d0:	88 e1       	ldi	r24, 0x18	; 24
  d2:	80 93 c1 00 	sts	0x00C1, r24	; 0x8000c1 <__TEXT_REGION_LENGTH__+0x7e00c1>
  d6:	86 e0       	ldi	r24, 0x06	; 6
  d8:	80 93 c2 00 	sts	0x00C2, r24	; 0x8000c2 <__TEXT_REGION_LENGTH__+0x7e00c2>
  dc:	08 95       	ret

000000de <init_pwm>:
  de:	e0 eb       	ldi	r30, 0xB0	; 176
  e0:	f0 e0       	ldi	r31, 0x00	; 0
  e2:	80 81       	ld	r24, Z
  e4:	83 6a       	ori	r24, 0xA3	; 163
  e6:	80 83       	st	Z, r24
  e8:	e1 eb       	ldi	r30, 0xB1	; 177
  ea:	f0 e0       	ldi	r31, 0x00	; 0
  ec:	80 81       	ld	r24, Z
  ee:	82 60       	ori	r24, 0x02	; 2
  f0:	80 83       	st	Z, r24
  f2:	80 81       	ld	r24, Z
  f4:	82 60       	ori	r24, 0x02	; 2
  f6:	80 83       	st	Z, r24
  f8:	10 92 b3 00 	sts	0x00B3, r1	; 0x8000b3 <__TEXT_REGION_LENGTH__+0x7e00b3>
  fc:	10 92 b4 00 	sts	0x00B4, r1	; 0x8000b4 <__TEXT_REGION_LENGTH__+0x7e00b4>
 100:	08 95       	ret

00000102 <SPI_init>:
 102:	80 e4       	ldi	r24, 0x40	; 64
 104:	84 b9       	out	0x04, r24	; 4
 106:	80 ec       	ldi	r24, 0xC0	; 192
 108:	8c bd       	out	0x2c, r24	; 44
 10a:	78 94       	sei
 10c:	08 95       	ret

0000010e <drive_and_turn>:
 10e:	8f 92       	push	r8
 110:	9f 92       	push	r9
 112:	af 92       	push	r10
 114:	bf 92       	push	r11
 116:	cf 92       	push	r12
 118:	df 92       	push	r13
 11a:	ef 92       	push	r14
 11c:	ff 92       	push	r15
 11e:	cf 93       	push	r28
 120:	6b 01       	movw	r12, r22
 122:	7c 01       	movw	r14, r24
 124:	88 e0       	ldi	r24, 0x08	; 8
 126:	82 b9       	out	0x02, r24	; 2
 128:	60 91 08 01 	lds	r22, 0x0108	; 0x800108 <speed>
 12c:	70 e0       	ldi	r23, 0x00	; 0
 12e:	80 e0       	ldi	r24, 0x00	; 0
 130:	90 e0       	ldi	r25, 0x00	; 0
 132:	16 d5       	rcall	.+2604   	; 0xb60 <__floatsisf>
 134:	a7 01       	movw	r20, r14
 136:	96 01       	movw	r18, r12
 138:	15 d4       	rcall	.+2090   	; 0x964 <__addsf3>
 13a:	20 e0       	ldi	r18, 0x00	; 0
 13c:	30 e0       	ldi	r19, 0x00	; 0
 13e:	4f e7       	ldi	r20, 0x7F	; 127
 140:	53 e4       	ldi	r21, 0x43	; 67
 142:	74 d4       	rcall	.+2280   	; 0xa2c <__cmpsf2>
 144:	88 23       	and	r24, r24
 146:	0c f0       	brlt	.+2      	; 0x14a <drive_and_turn+0x3c>
 148:	49 c0       	rjmp	.+146    	; 0x1dc <drive_and_turn+0xce>
 14a:	60 91 08 01 	lds	r22, 0x0108	; 0x800108 <speed>
 14e:	70 e0       	ldi	r23, 0x00	; 0
 150:	80 e0       	ldi	r24, 0x00	; 0
 152:	90 e0       	ldi	r25, 0x00	; 0
 154:	05 d5       	rcall	.+2570   	; 0xb60 <__floatsisf>
 156:	a7 01       	movw	r20, r14
 158:	96 01       	movw	r18, r12
 15a:	04 d4       	rcall	.+2056   	; 0x964 <__addsf3>
 15c:	20 e0       	ldi	r18, 0x00	; 0
 15e:	30 e0       	ldi	r19, 0x00	; 0
 160:	a9 01       	movw	r20, r18
 162:	ae d5       	rcall	.+2908   	; 0xcc0 <__gesf2>
 164:	18 16       	cp	r1, r24
 166:	0c f0       	brlt	.+2      	; 0x16a <drive_and_turn+0x5c>
 168:	39 c0       	rjmp	.+114    	; 0x1dc <drive_and_turn+0xce>
 16a:	20 e0       	ldi	r18, 0x00	; 0
 16c:	30 e0       	ldi	r19, 0x00	; 0
 16e:	a9 01       	movw	r20, r18
 170:	c7 01       	movw	r24, r14
 172:	b6 01       	movw	r22, r12
 174:	a5 d5       	rcall	.+2890   	; 0xcc0 <__gesf2>
 176:	18 16       	cp	r1, r24
 178:	6c f4       	brge	.+26     	; 0x194 <drive_and_turn+0x86>
 17a:	60 91 08 01 	lds	r22, 0x0108	; 0x800108 <speed>
 17e:	70 e0       	ldi	r23, 0x00	; 0
 180:	80 e0       	ldi	r24, 0x00	; 0
 182:	90 e0       	ldi	r25, 0x00	; 0
 184:	ed d4       	rcall	.+2522   	; 0xb60 <__floatsisf>
 186:	a7 01       	movw	r20, r14
 188:	96 01       	movw	r18, r12
 18a:	ec d3       	rcall	.+2008   	; 0x964 <__addsf3>
 18c:	bb d4       	rcall	.+2422   	; 0xb04 <__fixunssfsi>
 18e:	60 93 b3 00 	sts	0x00B3, r22	; 0x8000b3 <__TEXT_REGION_LENGTH__+0x7e00b3>
 192:	49 c0       	rjmp	.+146    	; 0x226 <drive_and_turn+0x118>
 194:	20 e0       	ldi	r18, 0x00	; 0
 196:	30 e0       	ldi	r19, 0x00	; 0
 198:	a9 01       	movw	r20, r18
 19a:	c7 01       	movw	r24, r14
 19c:	b6 01       	movw	r22, r12
 19e:	46 d4       	rcall	.+2188   	; 0xa2c <__cmpsf2>
 1a0:	88 23       	and	r24, r24
 1a2:	bc f4       	brge	.+46     	; 0x1d2 <drive_and_turn+0xc4>
 1a4:	c0 91 08 01 	lds	r28, 0x0108	; 0x800108 <speed>
 1a8:	20 e0       	ldi	r18, 0x00	; 0
 1aa:	30 e0       	ldi	r19, 0x00	; 0
 1ac:	40 e0       	ldi	r20, 0x00	; 0
 1ae:	5f e3       	ldi	r21, 0x3F	; 63
 1b0:	c7 01       	movw	r24, r14
 1b2:	b6 01       	movw	r22, r12
 1b4:	89 d5       	rcall	.+2834   	; 0xcc8 <__mulsf3>
 1b6:	4b 01       	movw	r8, r22
 1b8:	5c 01       	movw	r10, r24
 1ba:	6c 2f       	mov	r22, r28
 1bc:	70 e0       	ldi	r23, 0x00	; 0
 1be:	80 e0       	ldi	r24, 0x00	; 0
 1c0:	90 e0       	ldi	r25, 0x00	; 0
 1c2:	ce d4       	rcall	.+2460   	; 0xb60 <__floatsisf>
 1c4:	a5 01       	movw	r20, r10
 1c6:	94 01       	movw	r18, r8
 1c8:	cd d3       	rcall	.+1946   	; 0x964 <__addsf3>
 1ca:	9c d4       	rcall	.+2360   	; 0xb04 <__fixunssfsi>
 1cc:	60 93 b3 00 	sts	0x00B3, r22	; 0x8000b3 <__TEXT_REGION_LENGTH__+0x7e00b3>
 1d0:	2a c0       	rjmp	.+84     	; 0x226 <drive_and_turn+0x118>
 1d2:	80 91 08 01 	lds	r24, 0x0108	; 0x800108 <speed>
 1d6:	80 93 b3 00 	sts	0x00B3, r24	; 0x8000b3 <__TEXT_REGION_LENGTH__+0x7e00b3>
 1da:	25 c0       	rjmp	.+74     	; 0x226 <drive_and_turn+0x118>
 1dc:	60 91 08 01 	lds	r22, 0x0108	; 0x800108 <speed>
 1e0:	70 e0       	ldi	r23, 0x00	; 0
 1e2:	80 e0       	ldi	r24, 0x00	; 0
 1e4:	90 e0       	ldi	r25, 0x00	; 0
 1e6:	bc d4       	rcall	.+2424   	; 0xb60 <__floatsisf>
 1e8:	a7 01       	movw	r20, r14
 1ea:	96 01       	movw	r18, r12
 1ec:	bb d3       	rcall	.+1910   	; 0x964 <__addsf3>
 1ee:	20 e0       	ldi	r18, 0x00	; 0
 1f0:	30 e0       	ldi	r19, 0x00	; 0
 1f2:	4e e7       	ldi	r20, 0x7E	; 126
 1f4:	53 e4       	ldi	r21, 0x43	; 67
 1f6:	64 d5       	rcall	.+2760   	; 0xcc0 <__gesf2>
 1f8:	18 16       	cp	r1, r24
 1fa:	24 f4       	brge	.+8      	; 0x204 <drive_and_turn+0xf6>
 1fc:	8e ef       	ldi	r24, 0xFE	; 254
 1fe:	80 93 b3 00 	sts	0x00B3, r24	; 0x8000b3 <__TEXT_REGION_LENGTH__+0x7e00b3>
 202:	11 c0       	rjmp	.+34     	; 0x226 <drive_and_turn+0x118>
 204:	60 91 08 01 	lds	r22, 0x0108	; 0x800108 <speed>
 208:	70 e0       	ldi	r23, 0x00	; 0
 20a:	80 e0       	ldi	r24, 0x00	; 0
 20c:	90 e0       	ldi	r25, 0x00	; 0
 20e:	a8 d4       	rcall	.+2384   	; 0xb60 <__floatsisf>
 210:	a7 01       	movw	r20, r14
 212:	96 01       	movw	r18, r12
 214:	a7 d3       	rcall	.+1870   	; 0x964 <__addsf3>
 216:	20 e0       	ldi	r18, 0x00	; 0
 218:	30 e0       	ldi	r19, 0x00	; 0
 21a:	a9 01       	movw	r20, r18
 21c:	07 d4       	rcall	.+2062   	; 0xa2c <__cmpsf2>
 21e:	88 23       	and	r24, r24
 220:	14 f4       	brge	.+4      	; 0x226 <drive_and_turn+0x118>
 222:	10 92 b3 00 	sts	0x00B3, r1	; 0x8000b3 <__TEXT_REGION_LENGTH__+0x7e00b3>
 226:	60 91 08 01 	lds	r22, 0x0108	; 0x800108 <speed>
 22a:	70 e0       	ldi	r23, 0x00	; 0
 22c:	80 e0       	ldi	r24, 0x00	; 0
 22e:	90 e0       	ldi	r25, 0x00	; 0
 230:	97 d4       	rcall	.+2350   	; 0xb60 <__floatsisf>
 232:	a7 01       	movw	r20, r14
 234:	96 01       	movw	r18, r12
 236:	95 d3       	rcall	.+1834   	; 0x962 <__subsf3>
 238:	20 e0       	ldi	r18, 0x00	; 0
 23a:	30 e0       	ldi	r19, 0x00	; 0
 23c:	4f e7       	ldi	r20, 0x7F	; 127
 23e:	53 e4       	ldi	r21, 0x43	; 67
 240:	f5 d3       	rcall	.+2026   	; 0xa2c <__cmpsf2>
 242:	88 23       	and	r24, r24
 244:	0c f0       	brlt	.+2      	; 0x248 <drive_and_turn+0x13a>
 246:	49 c0       	rjmp	.+146    	; 0x2da <drive_and_turn+0x1cc>
 248:	60 91 08 01 	lds	r22, 0x0108	; 0x800108 <speed>
 24c:	70 e0       	ldi	r23, 0x00	; 0
 24e:	80 e0       	ldi	r24, 0x00	; 0
 250:	90 e0       	ldi	r25, 0x00	; 0
 252:	86 d4       	rcall	.+2316   	; 0xb60 <__floatsisf>
 254:	a7 01       	movw	r20, r14
 256:	96 01       	movw	r18, r12
 258:	84 d3       	rcall	.+1800   	; 0x962 <__subsf3>
 25a:	20 e0       	ldi	r18, 0x00	; 0
 25c:	30 e0       	ldi	r19, 0x00	; 0
 25e:	a9 01       	movw	r20, r18
 260:	2f d5       	rcall	.+2654   	; 0xcc0 <__gesf2>
 262:	18 16       	cp	r1, r24
 264:	0c f0       	brlt	.+2      	; 0x268 <drive_and_turn+0x15a>
 266:	39 c0       	rjmp	.+114    	; 0x2da <drive_and_turn+0x1cc>
 268:	20 e0       	ldi	r18, 0x00	; 0
 26a:	30 e0       	ldi	r19, 0x00	; 0
 26c:	a9 01       	movw	r20, r18
 26e:	c7 01       	movw	r24, r14
 270:	b6 01       	movw	r22, r12
 272:	dc d3       	rcall	.+1976   	; 0xa2c <__cmpsf2>
 274:	88 23       	and	r24, r24
 276:	6c f4       	brge	.+26     	; 0x292 <drive_and_turn+0x184>
 278:	60 91 08 01 	lds	r22, 0x0108	; 0x800108 <speed>
 27c:	70 e0       	ldi	r23, 0x00	; 0
 27e:	80 e0       	ldi	r24, 0x00	; 0
 280:	90 e0       	ldi	r25, 0x00	; 0
 282:	6e d4       	rcall	.+2268   	; 0xb60 <__floatsisf>
 284:	a7 01       	movw	r20, r14
 286:	96 01       	movw	r18, r12
 288:	6c d3       	rcall	.+1752   	; 0x962 <__subsf3>
 28a:	3c d4       	rcall	.+2168   	; 0xb04 <__fixunssfsi>
 28c:	60 93 b4 00 	sts	0x00B4, r22	; 0x8000b4 <__TEXT_REGION_LENGTH__+0x7e00b4>
 290:	49 c0       	rjmp	.+146    	; 0x324 <drive_and_turn+0x216>
 292:	20 e0       	ldi	r18, 0x00	; 0
 294:	30 e0       	ldi	r19, 0x00	; 0
 296:	a9 01       	movw	r20, r18
 298:	c7 01       	movw	r24, r14
 29a:	b6 01       	movw	r22, r12
 29c:	11 d5       	rcall	.+2594   	; 0xcc0 <__gesf2>
 29e:	18 16       	cp	r1, r24
 2a0:	bc f4       	brge	.+46     	; 0x2d0 <drive_and_turn+0x1c2>
 2a2:	c0 91 08 01 	lds	r28, 0x0108	; 0x800108 <speed>
 2a6:	20 e0       	ldi	r18, 0x00	; 0
 2a8:	30 e0       	ldi	r19, 0x00	; 0
 2aa:	40 e0       	ldi	r20, 0x00	; 0
 2ac:	5f e3       	ldi	r21, 0x3F	; 63
 2ae:	c7 01       	movw	r24, r14
 2b0:	b6 01       	movw	r22, r12
 2b2:	0a d5       	rcall	.+2580   	; 0xcc8 <__mulsf3>
 2b4:	6b 01       	movw	r12, r22
 2b6:	7c 01       	movw	r14, r24
 2b8:	6c 2f       	mov	r22, r28
 2ba:	70 e0       	ldi	r23, 0x00	; 0
 2bc:	80 e0       	ldi	r24, 0x00	; 0
 2be:	90 e0       	ldi	r25, 0x00	; 0
 2c0:	4f d4       	rcall	.+2206   	; 0xb60 <__floatsisf>
 2c2:	a7 01       	movw	r20, r14
 2c4:	96 01       	movw	r18, r12
 2c6:	4d d3       	rcall	.+1690   	; 0x962 <__subsf3>
 2c8:	1d d4       	rcall	.+2106   	; 0xb04 <__fixunssfsi>
 2ca:	60 93 b4 00 	sts	0x00B4, r22	; 0x8000b4 <__TEXT_REGION_LENGTH__+0x7e00b4>
 2ce:	2a c0       	rjmp	.+84     	; 0x324 <drive_and_turn+0x216>
 2d0:	80 91 08 01 	lds	r24, 0x0108	; 0x800108 <speed>
 2d4:	80 93 b4 00 	sts	0x00B4, r24	; 0x8000b4 <__TEXT_REGION_LENGTH__+0x7e00b4>
 2d8:	25 c0       	rjmp	.+74     	; 0x324 <drive_and_turn+0x216>
 2da:	60 91 08 01 	lds	r22, 0x0108	; 0x800108 <speed>
 2de:	70 e0       	ldi	r23, 0x00	; 0
 2e0:	80 e0       	ldi	r24, 0x00	; 0
 2e2:	90 e0       	ldi	r25, 0x00	; 0
 2e4:	3d d4       	rcall	.+2170   	; 0xb60 <__floatsisf>
 2e6:	a7 01       	movw	r20, r14
 2e8:	96 01       	movw	r18, r12
 2ea:	3b d3       	rcall	.+1654   	; 0x962 <__subsf3>
 2ec:	20 e0       	ldi	r18, 0x00	; 0
 2ee:	30 e0       	ldi	r19, 0x00	; 0
 2f0:	4e e7       	ldi	r20, 0x7E	; 126
 2f2:	53 e4       	ldi	r21, 0x43	; 67
 2f4:	e5 d4       	rcall	.+2506   	; 0xcc0 <__gesf2>
 2f6:	18 16       	cp	r1, r24
 2f8:	24 f4       	brge	.+8      	; 0x302 <drive_and_turn+0x1f4>
 2fa:	8e ef       	ldi	r24, 0xFE	; 254
 2fc:	80 93 b4 00 	sts	0x00B4, r24	; 0x8000b4 <__TEXT_REGION_LENGTH__+0x7e00b4>
 300:	11 c0       	rjmp	.+34     	; 0x324 <drive_and_turn+0x216>
 302:	60 91 08 01 	lds	r22, 0x0108	; 0x800108 <speed>
 306:	70 e0       	ldi	r23, 0x00	; 0
 308:	80 e0       	ldi	r24, 0x00	; 0
 30a:	90 e0       	ldi	r25, 0x00	; 0
 30c:	29 d4       	rcall	.+2130   	; 0xb60 <__floatsisf>
 30e:	a7 01       	movw	r20, r14
 310:	96 01       	movw	r18, r12
 312:	27 d3       	rcall	.+1614   	; 0x962 <__subsf3>
 314:	20 e0       	ldi	r18, 0x00	; 0
 316:	30 e0       	ldi	r19, 0x00	; 0
 318:	a9 01       	movw	r20, r18
 31a:	88 d3       	rcall	.+1808   	; 0xa2c <__cmpsf2>
 31c:	88 23       	and	r24, r24
 31e:	14 f4       	brge	.+4      	; 0x324 <drive_and_turn+0x216>
 320:	10 92 b4 00 	sts	0x00B4, r1	; 0x8000b4 <__TEXT_REGION_LENGTH__+0x7e00b4>
 324:	cf 91       	pop	r28
 326:	ff 90       	pop	r15
 328:	ef 90       	pop	r14
 32a:	df 90       	pop	r13
 32c:	cf 90       	pop	r12
 32e:	bf 90       	pop	r11
 330:	af 90       	pop	r10
 332:	9f 90       	pop	r9
 334:	8f 90       	pop	r8
 336:	08 95       	ret

00000338 <drive_fwd>:
 338:	88 e0       	ldi	r24, 0x08	; 8
 33a:	82 b9       	out	0x02, r24	; 2
 33c:	80 91 08 01 	lds	r24, 0x0108	; 0x800108 <speed>
 340:	80 93 b3 00 	sts	0x00B3, r24	; 0x8000b3 <__TEXT_REGION_LENGTH__+0x7e00b3>
 344:	80 91 08 01 	lds	r24, 0x0108	; 0x800108 <speed>
 348:	80 93 b4 00 	sts	0x00B4, r24	; 0x8000b4 <__TEXT_REGION_LENGTH__+0x7e00b4>
 34c:	08 95       	ret

0000034e <reverse>:
 34e:	82 e0       	ldi	r24, 0x02	; 2
 350:	82 b9       	out	0x02, r24	; 2
 352:	80 91 08 01 	lds	r24, 0x0108	; 0x800108 <speed>
 356:	80 93 b3 00 	sts	0x00B3, r24	; 0x8000b3 <__TEXT_REGION_LENGTH__+0x7e00b3>
 35a:	80 91 08 01 	lds	r24, 0x0108	; 0x800108 <speed>
 35e:	80 93 b4 00 	sts	0x00B4, r24	; 0x8000b4 <__TEXT_REGION_LENGTH__+0x7e00b4>
 362:	08 95       	ret

00000364 <rotate_left_maybe>:
 364:	12 b8       	out	0x02, r1	; 2
 366:	80 91 08 01 	lds	r24, 0x0108	; 0x800108 <speed>
 36a:	80 93 b3 00 	sts	0x00B3, r24	; 0x8000b3 <__TEXT_REGION_LENGTH__+0x7e00b3>
 36e:	80 91 08 01 	lds	r24, 0x0108	; 0x800108 <speed>
 372:	80 93 b4 00 	sts	0x00B4, r24	; 0x8000b4 <__TEXT_REGION_LENGTH__+0x7e00b4>
 376:	08 95       	ret

00000378 <rotate_right_maybe>:
 378:	8a e0       	ldi	r24, 0x0A	; 10
 37a:	82 b9       	out	0x02, r24	; 2
 37c:	80 91 08 01 	lds	r24, 0x0108	; 0x800108 <speed>
 380:	80 93 b3 00 	sts	0x00B3, r24	; 0x8000b3 <__TEXT_REGION_LENGTH__+0x7e00b3>
 384:	80 91 08 01 	lds	r24, 0x0108	; 0x800108 <speed>
 388:	80 93 b4 00 	sts	0x00B4, r24	; 0x8000b4 <__TEXT_REGION_LENGTH__+0x7e00b4>
 38c:	08 95       	ret

0000038e <stop>:
 38e:	10 92 b3 00 	sts	0x00B3, r1	; 0x8000b3 <__TEXT_REGION_LENGTH__+0x7e00b3>
 392:	10 92 b4 00 	sts	0x00B4, r1	; 0x8000b4 <__TEXT_REGION_LENGTH__+0x7e00b4>
 396:	08 95       	ret

00000398 <increase_speed>:
 398:	80 91 08 01 	lds	r24, 0x0108	; 0x800108 <speed>
 39c:	88 37       	cpi	r24, 0x78	; 120
 39e:	28 f4       	brcc	.+10     	; 0x3aa <increase_speed+0x12>
 3a0:	80 91 08 01 	lds	r24, 0x0108	; 0x800108 <speed>
 3a4:	88 5d       	subi	r24, 0xD8	; 216
 3a6:	80 93 08 01 	sts	0x0108, r24	; 0x800108 <speed>
 3aa:	08 95       	ret

000003ac <decrease_speed>:
 3ac:	80 91 08 01 	lds	r24, 0x0108	; 0x800108 <speed>
 3b0:	89 32       	cpi	r24, 0x29	; 41
 3b2:	28 f0       	brcs	.+10     	; 0x3be <decrease_speed+0x12>
 3b4:	80 91 08 01 	lds	r24, 0x0108	; 0x800108 <speed>
 3b8:	88 52       	subi	r24, 0x28	; 40
 3ba:	80 93 08 01 	sts	0x0108, r24	; 0x800108 <speed>
 3be:	08 95       	ret

000003c0 <USART_Transmit>:
 3c0:	ac 01       	movw	r20, r24
 3c2:	8b b1       	in	r24, 0x0b	; 11
 3c4:	84 60       	ori	r24, 0x04	; 4
 3c6:	8b b9       	out	0x0b, r24	; 11
 3c8:	20 e0       	ldi	r18, 0x00	; 0
 3ca:	30 e0       	ldi	r19, 0x00	; 0
 3cc:	0c c0       	rjmp	.+24     	; 0x3e6 <USART_Transmit+0x26>
 3ce:	90 91 c0 00 	lds	r25, 0x00C0	; 0x8000c0 <__TEXT_REGION_LENGTH__+0x7e00c0>
 3d2:	95 ff       	sbrs	r25, 5
 3d4:	fc cf       	rjmp	.-8      	; 0x3ce <USART_Transmit+0xe>
 3d6:	fa 01       	movw	r30, r20
 3d8:	e2 0f       	add	r30, r18
 3da:	f3 1f       	adc	r31, r19
 3dc:	90 81       	ld	r25, Z
 3de:	90 93 c6 00 	sts	0x00C6, r25	; 0x8000c6 <__TEXT_REGION_LENGTH__+0x7e00c6>
 3e2:	2f 5f       	subi	r18, 0xFF	; 255
 3e4:	3f 4f       	sbci	r19, 0xFF	; 255
 3e6:	26 17       	cp	r18, r22
 3e8:	37 07       	cpc	r19, r23
 3ea:	88 f3       	brcs	.-30     	; 0x3ce <USART_Transmit+0xe>
 3ec:	80 91 c0 00 	lds	r24, 0x00C0	; 0x8000c0 <__TEXT_REGION_LENGTH__+0x7e00c0>
 3f0:	86 ff       	sbrs	r24, 6
 3f2:	fc cf       	rjmp	.-8      	; 0x3ec <USART_Transmit+0x2c>
 3f4:	e0 ec       	ldi	r30, 0xC0	; 192
 3f6:	f0 e0       	ldi	r31, 0x00	; 0
 3f8:	80 81       	ld	r24, Z
 3fa:	80 64       	ori	r24, 0x40	; 64
 3fc:	80 83       	st	Z, r24
 3fe:	08 95       	ret

00000400 <USART_Recieve>:
 400:	ac 01       	movw	r20, r24
 402:	20 e0       	ldi	r18, 0x00	; 0
 404:	30 e0       	ldi	r19, 0x00	; 0
 406:	0c c0       	rjmp	.+24     	; 0x420 <USART_Recieve+0x20>
 408:	90 91 c0 00 	lds	r25, 0x00C0	; 0x8000c0 <__TEXT_REGION_LENGTH__+0x7e00c0>
 40c:	99 23       	and	r25, r25
 40e:	e4 f7       	brge	.-8      	; 0x408 <USART_Recieve+0x8>
 410:	fa 01       	movw	r30, r20
 412:	e2 0f       	add	r30, r18
 414:	f3 1f       	adc	r31, r19
 416:	90 91 c6 00 	lds	r25, 0x00C6	; 0x8000c6 <__TEXT_REGION_LENGTH__+0x7e00c6>
 41a:	90 83       	st	Z, r25
 41c:	2f 5f       	subi	r18, 0xFF	; 255
 41e:	3f 4f       	sbci	r19, 0xFF	; 255
 420:	26 17       	cp	r18, r22
 422:	37 07       	cpc	r19, r23
 424:	88 f3       	brcs	.-30     	; 0x408 <USART_Recieve+0x8>
 426:	8b b1       	in	r24, 0x0b	; 11
 428:	84 60       	ori	r24, 0x04	; 4
 42a:	8b b9       	out	0x0b, r24	; 11
 42c:	08 95       	ret

0000042e <move_servo>:
 42e:	cf 93       	push	r28
 430:	df 93       	push	r29
 432:	cd b7       	in	r28, 0x3d	; 61
 434:	de b7       	in	r29, 0x3e	; 62
 436:	29 97       	sbiw	r28, 0x09	; 9
 438:	0f b6       	in	r0, 0x3f	; 63
 43a:	f8 94       	cli
 43c:	de bf       	out	0x3e, r29	; 62
 43e:	0f be       	out	0x3f, r0	; 63
 440:	cd bf       	out	0x3d, r28	; 61
 442:	47 2f       	mov	r20, r23
 444:	50 e0       	ldi	r21, 0x00	; 0
 446:	9c 01       	movw	r18, r24
 448:	2a 5d       	subi	r18, 0xDA	; 218
 44a:	3f 4f       	sbci	r19, 0xFF	; 255
 44c:	26 0f       	add	r18, r22
 44e:	31 1d       	adc	r19, r1
 450:	24 0f       	add	r18, r20
 452:	35 1f       	adc	r19, r21
 454:	20 95       	com	r18
 456:	30 95       	com	r19
 458:	9f ef       	ldi	r25, 0xFF	; 255
 45a:	99 83       	std	Y+1, r25	; 0x01
 45c:	9a 83       	std	Y+2, r25	; 0x02
 45e:	8b 83       	std	Y+3, r24	; 0x03
 460:	85 e0       	ldi	r24, 0x05	; 5
 462:	8c 83       	std	Y+4, r24	; 0x04
 464:	83 e0       	ldi	r24, 0x03	; 3
 466:	8d 83       	std	Y+5, r24	; 0x05
 468:	8e e1       	ldi	r24, 0x1E	; 30
 46a:	8e 83       	std	Y+6, r24	; 0x06
 46c:	6f 83       	std	Y+7, r22	; 0x07
 46e:	78 87       	std	Y+8, r23	; 0x08
 470:	29 87       	std	Y+9, r18	; 0x09
 472:	69 e0       	ldi	r22, 0x09	; 9
 474:	70 e0       	ldi	r23, 0x00	; 0
 476:	ce 01       	movw	r24, r28
 478:	01 96       	adiw	r24, 0x01	; 1
 47a:	a2 df       	rcall	.-188    	; 0x3c0 <USART_Transmit>
 47c:	29 96       	adiw	r28, 0x09	; 9
 47e:	0f b6       	in	r0, 0x3f	; 63
 480:	f8 94       	cli
 482:	de bf       	out	0x3e, r29	; 62
 484:	0f be       	out	0x3f, r0	; 63
 486:	cd bf       	out	0x3d, r28	; 61
 488:	df 91       	pop	r29
 48a:	cf 91       	pop	r28
 48c:	08 95       	ret

0000048e <load_servo>:
 48e:	cf 93       	push	r28
 490:	df 93       	push	r29
 492:	cd b7       	in	r28, 0x3d	; 61
 494:	de b7       	in	r29, 0x3e	; 62
 496:	29 97       	sbiw	r28, 0x09	; 9
 498:	0f b6       	in	r0, 0x3f	; 63
 49a:	f8 94       	cli
 49c:	de bf       	out	0x3e, r29	; 62
 49e:	0f be       	out	0x3f, r0	; 63
 4a0:	cd bf       	out	0x3d, r28	; 61
 4a2:	47 2f       	mov	r20, r23
 4a4:	50 e0       	ldi	r21, 0x00	; 0
 4a6:	9c 01       	movw	r18, r24
 4a8:	29 5d       	subi	r18, 0xD9	; 217
 4aa:	3f 4f       	sbci	r19, 0xFF	; 255
 4ac:	26 0f       	add	r18, r22
 4ae:	31 1d       	adc	r19, r1
 4b0:	24 0f       	add	r18, r20
 4b2:	35 1f       	adc	r19, r21
 4b4:	20 95       	com	r18
 4b6:	30 95       	com	r19
 4b8:	9f ef       	ldi	r25, 0xFF	; 255
 4ba:	99 83       	std	Y+1, r25	; 0x01
 4bc:	9a 83       	std	Y+2, r25	; 0x02
 4be:	8b 83       	std	Y+3, r24	; 0x03
 4c0:	85 e0       	ldi	r24, 0x05	; 5
 4c2:	8c 83       	std	Y+4, r24	; 0x04
 4c4:	84 e0       	ldi	r24, 0x04	; 4
 4c6:	8d 83       	std	Y+5, r24	; 0x05
 4c8:	8e e1       	ldi	r24, 0x1E	; 30
 4ca:	8e 83       	std	Y+6, r24	; 0x06
 4cc:	6f 83       	std	Y+7, r22	; 0x07
 4ce:	78 87       	std	Y+8, r23	; 0x08
 4d0:	29 87       	std	Y+9, r18	; 0x09
 4d2:	69 e0       	ldi	r22, 0x09	; 9
 4d4:	70 e0       	ldi	r23, 0x00	; 0
 4d6:	ce 01       	movw	r24, r28
 4d8:	01 96       	adiw	r24, 0x01	; 1
 4da:	72 df       	rcall	.-284    	; 0x3c0 <USART_Transmit>
 4dc:	29 96       	adiw	r28, 0x09	; 9
 4de:	0f b6       	in	r0, 0x3f	; 63
 4e0:	f8 94       	cli
 4e2:	de bf       	out	0x3e, r29	; 62
 4e4:	0f be       	out	0x3f, r0	; 63
 4e6:	cd bf       	out	0x3d, r28	; 61
 4e8:	df 91       	pop	r29
 4ea:	cf 91       	pop	r28
 4ec:	08 95       	ret

000004ee <get_angle>:
 4ee:	cf 93       	push	r28
 4f0:	df 93       	push	r29
 4f2:	cd b7       	in	r28, 0x3d	; 61
 4f4:	de b7       	in	r29, 0x3e	; 62
 4f6:	64 97       	sbiw	r28, 0x14	; 20
 4f8:	0f b6       	in	r0, 0x3f	; 63
 4fa:	f8 94       	cli
 4fc:	de bf       	out	0x3e, r29	; 62
 4fe:	0f be       	out	0x3f, r0	; 63
 500:	cd bf       	out	0x3d, r28	; 61
 502:	9c 01       	movw	r18, r24
 504:	24 5d       	subi	r18, 0xD4	; 212
 506:	3f 4f       	sbci	r19, 0xFF	; 255
 508:	20 95       	com	r18
 50a:	30 95       	com	r19
 50c:	9f ef       	ldi	r25, 0xFF	; 255
 50e:	99 83       	std	Y+1, r25	; 0x01
 510:	9a 83       	std	Y+2, r25	; 0x02
 512:	8b 83       	std	Y+3, r24	; 0x03
 514:	84 e0       	ldi	r24, 0x04	; 4
 516:	8c 83       	std	Y+4, r24	; 0x04
 518:	82 e0       	ldi	r24, 0x02	; 2
 51a:	8d 83       	std	Y+5, r24	; 0x05
 51c:	94 e2       	ldi	r25, 0x24	; 36
 51e:	9e 83       	std	Y+6, r25	; 0x06
 520:	8f 83       	std	Y+7, r24	; 0x07
 522:	28 87       	std	Y+8, r18	; 0x08
 524:	68 e0       	ldi	r22, 0x08	; 8
 526:	70 e0       	ldi	r23, 0x00	; 0
 528:	ce 01       	movw	r24, r28
 52a:	01 96       	adiw	r24, 0x01	; 1
 52c:	49 df       	rcall	.-366    	; 0x3c0 <USART_Transmit>
 52e:	8b b1       	in	r24, 0x0b	; 11
 530:	8b 7f       	andi	r24, 0xFB	; 251
 532:	8b b9       	out	0x0b, r24	; 11
 534:	ce 01       	movw	r24, r28
 536:	09 96       	adiw	r24, 0x09	; 9
 538:	28 e0       	ldi	r18, 0x08	; 8
 53a:	fc 01       	movw	r30, r24
 53c:	11 92       	st	Z+, r1
 53e:	2a 95       	dec	r18
 540:	e9 f7       	brne	.-6      	; 0x53c <get_angle+0x4e>
 542:	68 e0       	ldi	r22, 0x08	; 8
 544:	70 e0       	ldi	r23, 0x00	; 0
 546:	5c df       	rcall	.-328    	; 0x400 <USART_Recieve>
 548:	2e 85       	ldd	r18, Y+14	; 0x0e
 54a:	8f 85       	ldd	r24, Y+15	; 0x0f
 54c:	90 e0       	ldi	r25, 0x00	; 0
 54e:	98 2f       	mov	r25, r24
 550:	88 27       	eor	r24, r24
 552:	82 0f       	add	r24, r18
 554:	91 1d       	adc	r25, r1
 556:	a0 e0       	ldi	r26, 0x00	; 0
 558:	b0 e0       	ldi	r27, 0x00	; 0
 55a:	89 8b       	std	Y+17, r24	; 0x11
 55c:	9a 8b       	std	Y+18, r25	; 0x12
 55e:	ab 8b       	std	Y+19, r26	; 0x13
 560:	bc 8b       	std	Y+20, r27	; 0x14
 562:	89 89       	ldd	r24, Y+17	; 0x11
 564:	9a 89       	ldd	r25, Y+18	; 0x12
 566:	ab 89       	ldd	r26, Y+19	; 0x13
 568:	bc 89       	ldd	r27, Y+20	; 0x14
 56a:	64 96       	adiw	r28, 0x14	; 20
 56c:	0f b6       	in	r0, 0x3f	; 63
 56e:	f8 94       	cli
 570:	de bf       	out	0x3e, r29	; 62
 572:	0f be       	out	0x3f, r0	; 63
 574:	cd bf       	out	0x3d, r28	; 61
 576:	df 91       	pop	r29
 578:	cf 91       	pop	r28
 57a:	08 95       	ret

0000057c <action>:
 57c:	cf 93       	push	r28
 57e:	df 93       	push	r29
 580:	00 d0       	rcall	.+0      	; 0x582 <action+0x6>
 582:	00 d0       	rcall	.+0      	; 0x584 <action+0x8>
 584:	00 d0       	rcall	.+0      	; 0x586 <action+0xa>
 586:	cd b7       	in	r28, 0x3d	; 61
 588:	de b7       	in	r29, 0x3e	; 62
 58a:	8f ef       	ldi	r24, 0xFF	; 255
 58c:	89 83       	std	Y+1, r24	; 0x01
 58e:	8a 83       	std	Y+2, r24	; 0x02
 590:	8e ef       	ldi	r24, 0xFE	; 254
 592:	8b 83       	std	Y+3, r24	; 0x03
 594:	82 e0       	ldi	r24, 0x02	; 2
 596:	8c 83       	std	Y+4, r24	; 0x04
 598:	85 e0       	ldi	r24, 0x05	; 5
 59a:	8d 83       	std	Y+5, r24	; 0x05
 59c:	8a ef       	ldi	r24, 0xFA	; 250
 59e:	8e 83       	std	Y+6, r24	; 0x06
 5a0:	66 e0       	ldi	r22, 0x06	; 6
 5a2:	70 e0       	ldi	r23, 0x00	; 0
 5a4:	ce 01       	movw	r24, r28
 5a6:	01 96       	adiw	r24, 0x01	; 1
 5a8:	0b df       	rcall	.-490    	; 0x3c0 <USART_Transmit>
 5aa:	85 e3       	ldi	r24, 0x35	; 53
 5ac:	8a 95       	dec	r24
 5ae:	f1 f7       	brne	.-4      	; 0x5ac <action+0x30>
 5b0:	00 00       	nop
 5b2:	26 96       	adiw	r28, 0x06	; 6
 5b4:	0f b6       	in	r0, 0x3f	; 63
 5b6:	f8 94       	cli
 5b8:	de bf       	out	0x3e, r29	; 62
 5ba:	0f be       	out	0x3f, r0	; 63
 5bc:	cd bf       	out	0x3d, r28	; 61
 5be:	df 91       	pop	r29
 5c0:	cf 91       	pop	r28
 5c2:	08 95       	ret

000005c4 <add1degree>:
 5c4:	cf 93       	push	r28
 5c6:	df 93       	push	r29
 5c8:	ec 01       	movw	r28, r24
 5ca:	91 df       	rcall	.-222    	; 0x4ee <get_angle>
 5cc:	8f 3f       	cpi	r24, 0xFF	; 255
 5ce:	23 e0       	ldi	r18, 0x03	; 3
 5d0:	92 07       	cpc	r25, r18
 5d2:	70 f4       	brcc	.+28     	; 0x5f0 <add1degree+0x2c>
 5d4:	60 91 06 01 	lds	r22, 0x0106	; 0x800106 <rotatespeed>
 5d8:	70 91 07 01 	lds	r23, 0x0107	; 0x800107 <rotatespeed+0x1>
 5dc:	68 0f       	add	r22, r24
 5de:	79 1f       	adc	r23, r25
 5e0:	ce 01       	movw	r24, r28
 5e2:	25 df       	rcall	.-438    	; 0x42e <move_servo>
 5e4:	87 ec       	ldi	r24, 0xC7	; 199
 5e6:	90 e0       	ldi	r25, 0x00	; 0
 5e8:	01 97       	sbiw	r24, 0x01	; 1
 5ea:	f1 f7       	brne	.-4      	; 0x5e8 <add1degree+0x24>
 5ec:	00 c0       	rjmp	.+0      	; 0x5ee <add1degree+0x2a>
 5ee:	00 00       	nop
 5f0:	df 91       	pop	r29
 5f2:	cf 91       	pop	r28
 5f4:	08 95       	ret

000005f6 <sub1degree>:
 5f6:	cf 93       	push	r28
 5f8:	df 93       	push	r29
 5fa:	ec 01       	movw	r28, r24
 5fc:	78 df       	rcall	.-272    	; 0x4ee <get_angle>
 5fe:	00 97       	sbiw	r24, 0x00	; 0
 600:	49 f0       	breq	.+18     	; 0x614 <sub1degree+0x1e>
 602:	20 91 06 01 	lds	r18, 0x0106	; 0x800106 <rotatespeed>
 606:	30 91 07 01 	lds	r19, 0x0107	; 0x800107 <rotatespeed+0x1>
 60a:	bc 01       	movw	r22, r24
 60c:	62 1b       	sub	r22, r18
 60e:	73 0b       	sbc	r23, r19
 610:	ce 01       	movw	r24, r28
 612:	0d df       	rcall	.-486    	; 0x42e <move_servo>
 614:	df 91       	pop	r29
 616:	cf 91       	pop	r28
 618:	08 95       	ret

0000061a <__vector_19>:
volatile uint8_t reglertecken = 0; // 0 innebär positivt tal
volatile float reglerstyr = 0;
volatile uint8_t current_action = 0;
volatile uint8_t last_action = 0;

ISR(SPI_STC_vect) {
 61a:	1f 92       	push	r1
 61c:	0f 92       	push	r0
 61e:	0f b6       	in	r0, 0x3f	; 63
 620:	0f 92       	push	r0
 622:	11 24       	eor	r1, r1
 624:	0b b6       	in	r0, 0x3b	; 59
 626:	0f 92       	push	r0
 628:	2f 93       	push	r18
 62a:	3f 93       	push	r19
 62c:	4f 93       	push	r20
 62e:	5f 93       	push	r21
 630:	6f 93       	push	r22
 632:	7f 93       	push	r23
 634:	8f 93       	push	r24
 636:	9f 93       	push	r25
 638:	af 93       	push	r26
 63a:	bf 93       	push	r27
 63c:	ef 93       	push	r30
 63e:	ff 93       	push	r31
	uint8_t received = SPDR;
 640:	9e b5       	in	r25, 0x2e	; 46
	switch (spi_state) {
 642:	80 91 17 01 	lds	r24, 0x0117	; 0x800117 <spi_state>
 646:	81 30       	cpi	r24, 0x01	; 1
 648:	89 f0       	breq	.+34     	; 0x66c <__vector_19+0x52>
 64a:	28 f0       	brcs	.+10     	; 0x656 <__vector_19+0x3c>
 64c:	82 30       	cpi	r24, 0x02	; 2
 64e:	a1 f0       	breq	.+40     	; 0x678 <__vector_19+0x5e>
 650:	83 30       	cpi	r24, 0x03	; 3
 652:	c1 f0       	breq	.+48     	; 0x684 <__vector_19+0x6a>
 654:	5d c0       	rjmp	.+186    	; 0x710 <__vector_19+0xf6>
		case SPI_STATE_WAITING:
		if (received == 0x30) {
 656:	90 33       	cpi	r25, 0x30	; 48
 658:	31 f4       	brne	.+12     	; 0x666 <__vector_19+0x4c>
			spi_state = SPI_STATE_RECEIVE_TECKEN;
 65a:	81 e0       	ldi	r24, 0x01	; 1
 65c:	80 93 17 01 	sts	0x0117, r24	; 0x800117 <spi_state>
			current_action = received;
 660:	90 93 0f 01 	sts	0x010F, r25	; 0x80010f <current_action>
 664:	57 c0       	rjmp	.+174    	; 0x714 <__vector_19+0xfa>
		} else {
			current_action = received;
 666:	90 93 0f 01 	sts	0x010F, r25	; 0x80010f <current_action>
 66a:	54 c0       	rjmp	.+168    	; 0x714 <__vector_19+0xfa>
		}

		break;
		
		case SPI_STATE_RECEIVE_TECKEN:
		reglertecken = received;
 66c:	90 93 14 01 	sts	0x0114, r25	; 0x800114 <reglertecken>
		spi_state = SPI_STATE_RECEIVE_HIGH;
 670:	82 e0       	ldi	r24, 0x02	; 2
 672:	80 93 17 01 	sts	0x0117, r24	; 0x800117 <spi_state>
		break;
 676:	4e c0       	rjmp	.+156    	; 0x714 <__vector_19+0xfa>
		


		case SPI_STATE_RECEIVE_HIGH:
		reglerstyr_high = received;
 678:	90 93 16 01 	sts	0x0116, r25	; 0x800116 <reglerstyr_high>
		spi_state = SPI_STATE_RECEIVE_LOW;
 67c:	83 e0       	ldi	r24, 0x03	; 3
 67e:	80 93 17 01 	sts	0x0117, r24	; 0x800117 <spi_state>
		break;
 682:	48 c0       	rjmp	.+144    	; 0x714 <__vector_19+0xfa>

		case SPI_STATE_RECEIVE_LOW:
		reglerstyr_low = received;
 684:	90 93 15 01 	sts	0x0115, r25	; 0x800115 <reglerstyr_low>
		cli();
 688:	f8 94       	cli
		reglerstyr = (float)((reglerstyr_high << 8) | reglerstyr_low);
 68a:	60 91 16 01 	lds	r22, 0x0116	; 0x800116 <reglerstyr_high>
 68e:	70 e0       	ldi	r23, 0x00	; 0
 690:	76 2f       	mov	r23, r22
 692:	66 27       	eor	r22, r22
 694:	80 91 15 01 	lds	r24, 0x0115	; 0x800115 <reglerstyr_low>
 698:	68 2b       	or	r22, r24
 69a:	07 2e       	mov	r0, r23
 69c:	00 0c       	add	r0, r0
 69e:	88 0b       	sbc	r24, r24
 6a0:	99 0b       	sbc	r25, r25
 6a2:	5e d2       	rcall	.+1212   	; 0xb60 <__floatsisf>
 6a4:	60 93 10 01 	sts	0x0110, r22	; 0x800110 <reglerstyr>
 6a8:	70 93 11 01 	sts	0x0111, r23	; 0x800111 <reglerstyr+0x1>
 6ac:	80 93 12 01 	sts	0x0112, r24	; 0x800112 <reglerstyr+0x2>
 6b0:	90 93 13 01 	sts	0x0113, r25	; 0x800113 <reglerstyr+0x3>
		reglerstyr /= 100;
 6b4:	60 91 10 01 	lds	r22, 0x0110	; 0x800110 <reglerstyr>
 6b8:	70 91 11 01 	lds	r23, 0x0111	; 0x800111 <reglerstyr+0x1>
 6bc:	80 91 12 01 	lds	r24, 0x0112	; 0x800112 <reglerstyr+0x2>
 6c0:	90 91 13 01 	lds	r25, 0x0113	; 0x800113 <reglerstyr+0x3>
 6c4:	20 e0       	ldi	r18, 0x00	; 0
 6c6:	30 e0       	ldi	r19, 0x00	; 0
 6c8:	48 ec       	ldi	r20, 0xC8	; 200
 6ca:	52 e4       	ldi	r21, 0x42	; 66
 6cc:	b3 d1       	rcall	.+870    	; 0xa34 <__divsf3>
 6ce:	60 93 10 01 	sts	0x0110, r22	; 0x800110 <reglerstyr>
 6d2:	70 93 11 01 	sts	0x0111, r23	; 0x800111 <reglerstyr+0x1>
 6d6:	80 93 12 01 	sts	0x0112, r24	; 0x800112 <reglerstyr+0x2>
 6da:	90 93 13 01 	sts	0x0113, r25	; 0x800113 <reglerstyr+0x3>
		sei();
 6de:	78 94       	sei
		if(reglertecken == 1)
 6e0:	80 91 14 01 	lds	r24, 0x0114	; 0x800114 <reglertecken>
 6e4:	81 30       	cpi	r24, 0x01	; 1
 6e6:	89 f4       	brne	.+34     	; 0x70a <__vector_19+0xf0>
		{
			reglerstyr *= -1;
 6e8:	80 91 10 01 	lds	r24, 0x0110	; 0x800110 <reglerstyr>
 6ec:	90 91 11 01 	lds	r25, 0x0111	; 0x800111 <reglerstyr+0x1>
 6f0:	a0 91 12 01 	lds	r26, 0x0112	; 0x800112 <reglerstyr+0x2>
 6f4:	b0 91 13 01 	lds	r27, 0x0113	; 0x800113 <reglerstyr+0x3>
 6f8:	b0 58       	subi	r27, 0x80	; 128
 6fa:	80 93 10 01 	sts	0x0110, r24	; 0x800110 <reglerstyr>
 6fe:	90 93 11 01 	sts	0x0111, r25	; 0x800111 <reglerstyr+0x1>
 702:	a0 93 12 01 	sts	0x0112, r26	; 0x800112 <reglerstyr+0x2>
 706:	b0 93 13 01 	sts	0x0113, r27	; 0x800113 <reglerstyr+0x3>
		}
		spi_state = SPI_STATE_WAITING; // Reset for next command
 70a:	10 92 17 01 	sts	0x0117, r1	; 0x800117 <spi_state>
		break;
 70e:	02 c0       	rjmp	.+4      	; 0x714 <__vector_19+0xfa>

		default:
		spi_state = SPI_STATE_WAITING; // Fail-safe reset
 710:	10 92 17 01 	sts	0x0117, r1	; 0x800117 <spi_state>
		break;
	}
}
 714:	ff 91       	pop	r31
 716:	ef 91       	pop	r30
 718:	bf 91       	pop	r27
 71a:	af 91       	pop	r26
 71c:	9f 91       	pop	r25
 71e:	8f 91       	pop	r24
 720:	7f 91       	pop	r23
 722:	6f 91       	pop	r22
 724:	5f 91       	pop	r21
 726:	4f 91       	pop	r20
 728:	3f 91       	pop	r19
 72a:	2f 91       	pop	r18
 72c:	0f 90       	pop	r0
 72e:	0b be       	out	0x3b, r0	; 59
 730:	0f 90       	pop	r0
 732:	0f be       	out	0x3f, r0	; 63
 734:	0f 90       	pop	r0
 736:	1f 90       	pop	r1
 738:	18 95       	reti

0000073a <main>:

int main(void)
{
	
	DDRA = 0b1010;
	PORTA = 0b0010;
 73a:	8a e0       	ldi	r24, 0x0A	; 10
 73c:	81 b9       	out	0x01, r24	; 1
	DDRD = 0b11000110; // Sätt TXD och TX enable till output och RXD till input
 73e:	82 e0       	ldi	r24, 0x02	; 2
 740:	82 b9       	out	0x02, r24	; 2
	USART_Init(MYUBRR);
 742:	86 ec       	ldi	r24, 0xC6	; 198
 744:	8a b9       	out	0x0a, r24	; 10
	SPI_init();
 746:	80 e0       	ldi	r24, 0x00	; 0
 748:	bf dc       	rcall	.-1666   	; 0xc8 <USART_Init>
	init_pwm();
 74a:	db dc       	rcall	.-1610   	; 0x102 <SPI_init>
	_delay_us(30);
 74c:	c8 dc       	rcall	.-1648   	; 0xde <init_pwm>
 74e:	20 ea       	ldi	r18, 0xA0	; 160
	#else
		//round up by default
		__ticks_dc = (uint32_t)(ceil(fabs(__tmp)));
	#endif

	__builtin_avr_delay_cycles(__ticks_dc);
 750:	2a 95       	dec	r18
 752:	f1 f7       	brne	.-4      	; 0x750 <main+0x16>
 754:	60 e0       	ldi	r22, 0x00	; 0
	load_servo(3,0);
	load_servo(2, 0);
 756:	70 e0       	ldi	r23, 0x00	; 0
 758:	83 e0       	ldi	r24, 0x03	; 3
 75a:	90 e0       	ldi	r25, 0x00	; 0
 75c:	98 de       	rcall	.-720    	; 0x48e <load_servo>
 75e:	60 e0       	ldi	r22, 0x00	; 0
	action();
 760:	70 e0       	ldi	r23, 0x00	; 0
 762:	82 e0       	ldi	r24, 0x02	; 2
 764:	90 e0       	ldi	r25, 0x00	; 0
 766:	93 de       	rcall	.-730    	; 0x48e <load_servo>
	_delay_ms(1000);
 768:	09 df       	rcall	.-494    	; 0x57c <action>
 76a:	8f ef       	ldi	r24, 0xFF	; 255
	#else
		//round up by default
		__ticks_dc = (uint32_t)(ceil(fabs(__tmp)));
	#endif

	__builtin_avr_delay_cycles(__ticks_dc);
 76c:	93 ed       	ldi	r25, 0xD3	; 211
 76e:	20 e3       	ldi	r18, 0x30	; 48
 770:	81 50       	subi	r24, 0x01	; 1
 772:	90 40       	sbci	r25, 0x00	; 0
 774:	20 40       	sbci	r18, 0x00	; 0
 776:	e1 f7       	brne	.-8      	; 0x770 <main+0x36>
 778:	00 c0       	rjmp	.+0      	; 0x77a <main+0x40>
 77a:	00 00       	nop
*/
	while (1)
	{
	
		if(current_action == 0x1)
		{
 77c:	80 91 0f 01 	lds	r24, 0x010F	; 0x80010f <current_action>
 780:	81 30       	cpi	r24, 0x01	; 1
 782:	11 f4       	brne	.+4      	; 0x788 <main+0x4e>
			drive_fwd();
			//move_servo(3,300);
 784:	d9 dd       	rcall	.-1102   	; 0x338 <drive_fwd>
 786:	e8 c0       	rjmp	.+464    	; 0x958 <main+0x21e>
			}
			*/
			
		}
		else if(current_action == 0x2)
		{
 788:	80 91 0f 01 	lds	r24, 0x010F	; 0x80010f <current_action>
 78c:	82 30       	cpi	r24, 0x02	; 2
			rotate_left_maybe();
			//move_servo(3, 0);
 78e:	11 f4       	brne	.+4      	; 0x794 <main+0x5a>
 790:	e9 dd       	rcall	.-1070   	; 0x364 <rotate_left_maybe>
 792:	e2 c0       	rjmp	.+452    	; 0x958 <main+0x21e>
				counter = 0;
			}
			*/
		}
		else if(current_action == 0x3)
		{
 794:	80 91 0f 01 	lds	r24, 0x010F	; 0x80010f <current_action>
 798:	83 30       	cpi	r24, 0x03	; 3
			reverse();
			//sub1degree(3);
 79a:	11 f4       	brne	.+4      	; 0x7a0 <main+0x66>
 79c:	d8 dd       	rcall	.-1104   	; 0x34e <reverse>
 79e:	dc c0       	rjmp	.+440    	; 0x958 <main+0x21e>
				counter = 0;
			}
			*/
		}
		else if(current_action == 0x4 )
		{
 7a0:	80 91 0f 01 	lds	r24, 0x010F	; 0x80010f <current_action>
 7a4:	84 30       	cpi	r24, 0x04	; 4
			rotate_right_maybe();
			//move_servo(3, 300);
 7a6:	11 f4       	brne	.+4      	; 0x7ac <main+0x72>
 7a8:	e7 dd       	rcall	.-1074   	; 0x378 <rotate_right_maybe>
 7aa:	d6 c0       	rjmp	.+428    	; 0x958 <main+0x21e>
				counter = 0;
			}
			*/
		}
		else if(current_action == 0)
		{
 7ac:	80 91 0f 01 	lds	r24, 0x010F	; 0x80010f <current_action>
 7b0:	81 11       	cpse	r24, r1
 7b2:	02 c0       	rjmp	.+4      	; 0x7b8 <main+0x7e>
			stop();
		}
 7b4:	ec dd       	rcall	.-1064   	; 0x38e <stop>
 7b6:	d0 c0       	rjmp	.+416    	; 0x958 <main+0x21e>
		else if(current_action == 0x14 && current_action != last_action)
		{
 7b8:	80 91 0f 01 	lds	r24, 0x010F	; 0x80010f <current_action>
 7bc:	84 31       	cpi	r24, 0x14	; 20
 7be:	41 f4       	brne	.+16     	; 0x7d0 <main+0x96>
 7c0:	90 91 0f 01 	lds	r25, 0x010F	; 0x80010f <current_action>
 7c4:	80 91 0e 01 	lds	r24, 0x010E	; 0x80010e <last_action>
 7c8:	98 17       	cp	r25, r24
 7ca:	11 f0       	breq	.+4      	; 0x7d0 <main+0x96>
			decrease_speed();
		}
 7cc:	ef dd       	rcall	.-1058   	; 0x3ac <decrease_speed>
 7ce:	c4 c0       	rjmp	.+392    	; 0x958 <main+0x21e>
		else if(current_action == 0x15 && current_action != last_action)
		{
 7d0:	80 91 0f 01 	lds	r24, 0x010F	; 0x80010f <current_action>
 7d4:	85 31       	cpi	r24, 0x15	; 21
 7d6:	41 f4       	brne	.+16     	; 0x7e8 <main+0xae>
 7d8:	90 91 0f 01 	lds	r25, 0x010F	; 0x80010f <current_action>
 7dc:	80 91 0e 01 	lds	r24, 0x010E	; 0x80010e <last_action>
 7e0:	98 17       	cp	r25, r24
 7e2:	11 f0       	breq	.+4      	; 0x7e8 <main+0xae>
			increase_speed();
		}
 7e4:	d9 dd       	rcall	.-1102   	; 0x398 <increase_speed>
 7e6:	b8 c0       	rjmp	.+368    	; 0x958 <main+0x21e>
 7e8:	80 91 0f 01 	lds	r24, 0x010F	; 0x80010f <current_action>
		else if(current_action == 0x20 && current_action != last_action && current_joint < 5)
		{
 7ec:	80 32       	cpi	r24, 0x20	; 32
 7ee:	b1 f4       	brne	.+44     	; 0x81c <main+0xe2>
 7f0:	90 91 0f 01 	lds	r25, 0x010F	; 0x80010f <current_action>
 7f4:	80 91 0e 01 	lds	r24, 0x010E	; 0x80010e <last_action>
 7f8:	98 17       	cp	r25, r24
 7fa:	81 f0       	breq	.+32     	; 0x81c <main+0xe2>
 7fc:	80 91 04 01 	lds	r24, 0x0104	; 0x800104 <current_joint>
 800:	90 91 05 01 	lds	r25, 0x0105	; 0x800105 <current_joint+0x1>
 804:	05 97       	sbiw	r24, 0x05	; 5
 806:	50 f4       	brcc	.+20     	; 0x81c <main+0xe2>
 808:	80 91 04 01 	lds	r24, 0x0104	; 0x800104 <current_joint>
			current_joint += 1;
		}
 80c:	90 91 05 01 	lds	r25, 0x0105	; 0x800105 <current_joint+0x1>
 810:	01 96       	adiw	r24, 0x01	; 1
 812:	90 93 05 01 	sts	0x0105, r25	; 0x800105 <current_joint+0x1>
 816:	80 93 04 01 	sts	0x0104, r24	; 0x800104 <current_joint>
 81a:	9e c0       	rjmp	.+316    	; 0x958 <main+0x21e>
 81c:	80 91 0f 01 	lds	r24, 0x010F	; 0x80010f <current_action>
		else if(current_action == 0x21 && current_action != last_action && current_joint > 1)
		{
 820:	81 32       	cpi	r24, 0x21	; 33
 822:	b1 f4       	brne	.+44     	; 0x850 <main+0x116>
 824:	90 91 0f 01 	lds	r25, 0x010F	; 0x80010f <current_action>
 828:	80 91 0e 01 	lds	r24, 0x010E	; 0x80010e <last_action>
 82c:	98 17       	cp	r25, r24
 82e:	81 f0       	breq	.+32     	; 0x850 <main+0x116>
 830:	80 91 04 01 	lds	r24, 0x0104	; 0x800104 <current_joint>
 834:	90 91 05 01 	lds	r25, 0x0105	; 0x800105 <current_joint+0x1>
 838:	02 97       	sbiw	r24, 0x02	; 2
 83a:	50 f0       	brcs	.+20     	; 0x850 <main+0x116>
 83c:	80 91 04 01 	lds	r24, 0x0104	; 0x800104 <current_joint>
			current_joint -= 1;
		}
 840:	90 91 05 01 	lds	r25, 0x0105	; 0x800105 <current_joint+0x1>
 844:	01 97       	sbiw	r24, 0x01	; 1
 846:	90 93 05 01 	sts	0x0105, r25	; 0x800105 <current_joint+0x1>
 84a:	80 93 04 01 	sts	0x0104, r24	; 0x800104 <current_joint>
 84e:	84 c0       	rjmp	.+264    	; 0x958 <main+0x21e>
 850:	80 91 0f 01 	lds	r24, 0x010F	; 0x80010f <current_action>
		
		// Reglering
		
		
		else if(current_action == 0x30)
		{
 854:	80 33       	cpi	r24, 0x30	; 48
 856:	61 f4       	brne	.+24     	; 0x870 <main+0x136>
			float reglercopy;
			cli();
			reglercopy = reglerstyr;
 858:	f8 94       	cli
			sei();
 85a:	60 91 10 01 	lds	r22, 0x0110	; 0x800110 <reglerstyr>
 85e:	70 91 11 01 	lds	r23, 0x0111	; 0x800111 <reglerstyr+0x1>
 862:	80 91 12 01 	lds	r24, 0x0112	; 0x800112 <reglerstyr+0x2>
 866:	90 91 13 01 	lds	r25, 0x0113	; 0x800113 <reglerstyr+0x3>
			
 86a:	78 94       	sei
			drive_and_turn(reglercopy);
			
 86c:	50 dc       	rcall	.-1888   	; 0x10e <drive_and_turn>
 86e:	74 c0       	rjmp	.+232    	; 0x958 <main+0x21e>
 870:	80 91 0f 01 	lds	r24, 0x010F	; 0x80010f <current_action>
		
			
			
		// Servon	
		else if(current_action == 0x31)
		{
 874:	81 33       	cpi	r24, 0x31	; 49
 876:	b9 f5       	brne	.+110    	; 0x8e6 <main+0x1ac>
 878:	80 91 0a 01 	lds	r24, 0x010A	; 0x80010a <__data_end>
			counter += 1;
			if(counter >= timertime)
 87c:	90 91 0b 01 	lds	r25, 0x010B	; 0x80010b <__data_end+0x1>
 880:	a0 91 0c 01 	lds	r26, 0x010C	; 0x80010c <__data_end+0x2>
 884:	b0 91 0d 01 	lds	r27, 0x010D	; 0x80010d <__data_end+0x3>
 888:	01 96       	adiw	r24, 0x01	; 1
 88a:	a1 1d       	adc	r26, r1
 88c:	b1 1d       	adc	r27, r1
 88e:	80 93 0a 01 	sts	0x010A, r24	; 0x80010a <__data_end>
 892:	90 93 0b 01 	sts	0x010B, r25	; 0x80010b <__data_end+0x1>
 896:	a0 93 0c 01 	sts	0x010C, r26	; 0x80010c <__data_end+0x2>
 89a:	b0 93 0d 01 	sts	0x010D, r27	; 0x80010d <__data_end+0x3>
 89e:	40 91 0a 01 	lds	r20, 0x010A	; 0x80010a <__data_end>
			{
 8a2:	50 91 0b 01 	lds	r21, 0x010B	; 0x80010b <__data_end+0x1>
 8a6:	60 91 0c 01 	lds	r22, 0x010C	; 0x80010c <__data_end+0x2>
 8aa:	70 91 0d 01 	lds	r23, 0x010D	; 0x80010d <__data_end+0x3>
 8ae:	80 91 00 01 	lds	r24, 0x0100	; 0x800100 <__DATA_REGION_ORIGIN__>
 8b2:	90 91 01 01 	lds	r25, 0x0101	; 0x800101 <__DATA_REGION_ORIGIN__+0x1>
 8b6:	a0 91 02 01 	lds	r26, 0x0102	; 0x800102 <__DATA_REGION_ORIGIN__+0x2>
 8ba:	b0 91 03 01 	lds	r27, 0x0103	; 0x800103 <__DATA_REGION_ORIGIN__+0x3>
 8be:	48 17       	cp	r20, r24
 8c0:	59 07       	cpc	r21, r25
 8c2:	6a 07       	cpc	r22, r26
 8c4:	7b 07       	cpc	r23, r27
 8c6:	08 f4       	brcc	.+2      	; 0x8ca <main+0x190>
 8c8:	47 c0       	rjmp	.+142    	; 0x958 <main+0x21e>
				add1degree(current_joint);
				counter = 0;
 8ca:	80 91 04 01 	lds	r24, 0x0104	; 0x800104 <current_joint>
 8ce:	90 91 05 01 	lds	r25, 0x0105	; 0x800105 <current_joint+0x1>
 8d2:	78 de       	rcall	.-784    	; 0x5c4 <add1degree>
 8d4:	10 92 0a 01 	sts	0x010A, r1	; 0x80010a <__data_end>
			}
 8d8:	10 92 0b 01 	sts	0x010B, r1	; 0x80010b <__data_end+0x1>
 8dc:	10 92 0c 01 	sts	0x010C, r1	; 0x80010c <__data_end+0x2>
 8e0:	10 92 0d 01 	sts	0x010D, r1	; 0x80010d <__data_end+0x3>
 8e4:	39 c0       	rjmp	.+114    	; 0x958 <main+0x21e>
 8e6:	80 91 0f 01 	lds	r24, 0x010F	; 0x80010f <current_action>
		}
		else if(current_action == 0x32)
		{
 8ea:	82 33       	cpi	r24, 0x32	; 50
 8ec:	a9 f5       	brne	.+106    	; 0x958 <main+0x21e>
 8ee:	80 91 0a 01 	lds	r24, 0x010A	; 0x80010a <__data_end>
			counter +=1;
			if(counter >= timertime)
 8f2:	90 91 0b 01 	lds	r25, 0x010B	; 0x80010b <__data_end+0x1>
 8f6:	a0 91 0c 01 	lds	r26, 0x010C	; 0x80010c <__data_end+0x2>
 8fa:	b0 91 0d 01 	lds	r27, 0x010D	; 0x80010d <__data_end+0x3>
 8fe:	01 96       	adiw	r24, 0x01	; 1
 900:	a1 1d       	adc	r26, r1
 902:	b1 1d       	adc	r27, r1
 904:	80 93 0a 01 	sts	0x010A, r24	; 0x80010a <__data_end>
 908:	90 93 0b 01 	sts	0x010B, r25	; 0x80010b <__data_end+0x1>
 90c:	a0 93 0c 01 	sts	0x010C, r26	; 0x80010c <__data_end+0x2>
 910:	b0 93 0d 01 	sts	0x010D, r27	; 0x80010d <__data_end+0x3>
 914:	40 91 0a 01 	lds	r20, 0x010A	; 0x80010a <__data_end>
			{
 918:	50 91 0b 01 	lds	r21, 0x010B	; 0x80010b <__data_end+0x1>
 91c:	60 91 0c 01 	lds	r22, 0x010C	; 0x80010c <__data_end+0x2>
 920:	70 91 0d 01 	lds	r23, 0x010D	; 0x80010d <__data_end+0x3>
 924:	80 91 00 01 	lds	r24, 0x0100	; 0x800100 <__DATA_REGION_ORIGIN__>
 928:	90 91 01 01 	lds	r25, 0x0101	; 0x800101 <__DATA_REGION_ORIGIN__+0x1>
 92c:	a0 91 02 01 	lds	r26, 0x0102	; 0x800102 <__DATA_REGION_ORIGIN__+0x2>
 930:	b0 91 03 01 	lds	r27, 0x0103	; 0x800103 <__DATA_REGION_ORIGIN__+0x3>
 934:	48 17       	cp	r20, r24
 936:	59 07       	cpc	r21, r25
 938:	6a 07       	cpc	r22, r26
 93a:	7b 07       	cpc	r23, r27
 93c:	68 f0       	brcs	.+26     	; 0x958 <main+0x21e>
				sub1degree(current_joint);
				counter = 0;
 93e:	80 91 04 01 	lds	r24, 0x0104	; 0x800104 <current_joint>
 942:	90 91 05 01 	lds	r25, 0x0105	; 0x800105 <current_joint+0x1>
 946:	57 de       	rcall	.-850    	; 0x5f6 <sub1degree>
 948:	10 92 0a 01 	sts	0x010A, r1	; 0x80010a <__data_end>
			}
 94c:	10 92 0b 01 	sts	0x010B, r1	; 0x80010b <__data_end+0x1>
 950:	10 92 0c 01 	sts	0x010C, r1	; 0x80010c <__data_end+0x2>
 954:	10 92 0d 01 	sts	0x010D, r1	; 0x80010d <__data_end+0x3>
 958:	80 91 0f 01 	lds	r24, 0x010F	; 0x80010f <current_action>
		
		

		
		last_action = current_action;
	}
 95c:	80 93 0e 01 	sts	0x010E, r24	; 0x80010e <last_action>
 960:	0d cf       	rjmp	.-486    	; 0x77c <main+0x42>

00000962 <__subsf3>:
 962:	50 58       	subi	r21, 0x80	; 128

00000964 <__addsf3>:
 964:	bb 27       	eor	r27, r27
 966:	aa 27       	eor	r26, r26
 968:	0e d0       	rcall	.+28     	; 0x986 <__addsf3x>
 96a:	70 c1       	rjmp	.+736    	; 0xc4c <__fp_round>
 96c:	61 d1       	rcall	.+706    	; 0xc30 <__fp_pscA>
 96e:	30 f0       	brcs	.+12     	; 0x97c <__addsf3+0x18>
 970:	66 d1       	rcall	.+716    	; 0xc3e <__fp_pscB>
 972:	20 f0       	brcs	.+8      	; 0x97c <__addsf3+0x18>
 974:	31 f4       	brne	.+12     	; 0x982 <__addsf3+0x1e>
 976:	9f 3f       	cpi	r25, 0xFF	; 255
 978:	11 f4       	brne	.+4      	; 0x97e <__addsf3+0x1a>
 97a:	1e f4       	brtc	.+6      	; 0x982 <__addsf3+0x1e>
 97c:	56 c1       	rjmp	.+684    	; 0xc2a <__fp_nan>
 97e:	0e f4       	brtc	.+2      	; 0x982 <__addsf3+0x1e>
 980:	e0 95       	com	r30
 982:	e7 fb       	bst	r30, 7
 984:	4c c1       	rjmp	.+664    	; 0xc1e <__fp_inf>

00000986 <__addsf3x>:
 986:	e9 2f       	mov	r30, r25
 988:	72 d1       	rcall	.+740    	; 0xc6e <__fp_split3>
 98a:	80 f3       	brcs	.-32     	; 0x96c <__addsf3+0x8>
 98c:	ba 17       	cp	r27, r26
 98e:	62 07       	cpc	r22, r18
 990:	73 07       	cpc	r23, r19
 992:	84 07       	cpc	r24, r20
 994:	95 07       	cpc	r25, r21
 996:	18 f0       	brcs	.+6      	; 0x99e <__addsf3x+0x18>
 998:	71 f4       	brne	.+28     	; 0x9b6 <__addsf3x+0x30>
 99a:	9e f5       	brtc	.+102    	; 0xa02 <__addsf3x+0x7c>
 99c:	8a c1       	rjmp	.+788    	; 0xcb2 <__fp_zero>
 99e:	0e f4       	brtc	.+2      	; 0x9a2 <__addsf3x+0x1c>
 9a0:	e0 95       	com	r30
 9a2:	0b 2e       	mov	r0, r27
 9a4:	ba 2f       	mov	r27, r26
 9a6:	a0 2d       	mov	r26, r0
 9a8:	0b 01       	movw	r0, r22
 9aa:	b9 01       	movw	r22, r18
 9ac:	90 01       	movw	r18, r0
 9ae:	0c 01       	movw	r0, r24
 9b0:	ca 01       	movw	r24, r20
 9b2:	a0 01       	movw	r20, r0
 9b4:	11 24       	eor	r1, r1
 9b6:	ff 27       	eor	r31, r31
 9b8:	59 1b       	sub	r21, r25
 9ba:	99 f0       	breq	.+38     	; 0x9e2 <__addsf3x+0x5c>
 9bc:	59 3f       	cpi	r21, 0xF9	; 249
 9be:	50 f4       	brcc	.+20     	; 0x9d4 <__addsf3x+0x4e>
 9c0:	50 3e       	cpi	r21, 0xE0	; 224
 9c2:	68 f1       	brcs	.+90     	; 0xa1e <__addsf3x+0x98>
 9c4:	1a 16       	cp	r1, r26
 9c6:	f0 40       	sbci	r31, 0x00	; 0
 9c8:	a2 2f       	mov	r26, r18
 9ca:	23 2f       	mov	r18, r19
 9cc:	34 2f       	mov	r19, r20
 9ce:	44 27       	eor	r20, r20
 9d0:	58 5f       	subi	r21, 0xF8	; 248
 9d2:	f3 cf       	rjmp	.-26     	; 0x9ba <__addsf3x+0x34>
 9d4:	46 95       	lsr	r20
 9d6:	37 95       	ror	r19
 9d8:	27 95       	ror	r18
 9da:	a7 95       	ror	r26
 9dc:	f0 40       	sbci	r31, 0x00	; 0
 9de:	53 95       	inc	r21
 9e0:	c9 f7       	brne	.-14     	; 0x9d4 <__addsf3x+0x4e>
 9e2:	7e f4       	brtc	.+30     	; 0xa02 <__addsf3x+0x7c>
 9e4:	1f 16       	cp	r1, r31
 9e6:	ba 0b       	sbc	r27, r26
 9e8:	62 0b       	sbc	r22, r18
 9ea:	73 0b       	sbc	r23, r19
 9ec:	84 0b       	sbc	r24, r20
 9ee:	ba f0       	brmi	.+46     	; 0xa1e <__addsf3x+0x98>
 9f0:	91 50       	subi	r25, 0x01	; 1
 9f2:	a1 f0       	breq	.+40     	; 0xa1c <__addsf3x+0x96>
 9f4:	ff 0f       	add	r31, r31
 9f6:	bb 1f       	adc	r27, r27
 9f8:	66 1f       	adc	r22, r22
 9fa:	77 1f       	adc	r23, r23
 9fc:	88 1f       	adc	r24, r24
 9fe:	c2 f7       	brpl	.-16     	; 0x9f0 <__addsf3x+0x6a>
 a00:	0e c0       	rjmp	.+28     	; 0xa1e <__addsf3x+0x98>
 a02:	ba 0f       	add	r27, r26
 a04:	62 1f       	adc	r22, r18
 a06:	73 1f       	adc	r23, r19
 a08:	84 1f       	adc	r24, r20
 a0a:	48 f4       	brcc	.+18     	; 0xa1e <__addsf3x+0x98>
 a0c:	87 95       	ror	r24
 a0e:	77 95       	ror	r23
 a10:	67 95       	ror	r22
 a12:	b7 95       	ror	r27
 a14:	f7 95       	ror	r31
 a16:	9e 3f       	cpi	r25, 0xFE	; 254
 a18:	08 f0       	brcs	.+2      	; 0xa1c <__addsf3x+0x96>
 a1a:	b3 cf       	rjmp	.-154    	; 0x982 <__addsf3+0x1e>
 a1c:	93 95       	inc	r25
 a1e:	88 0f       	add	r24, r24
 a20:	08 f0       	brcs	.+2      	; 0xa24 <__addsf3x+0x9e>
 a22:	99 27       	eor	r25, r25
 a24:	ee 0f       	add	r30, r30
 a26:	97 95       	ror	r25
 a28:	87 95       	ror	r24
 a2a:	08 95       	ret

00000a2c <__cmpsf2>:
 a2c:	d4 d0       	rcall	.+424    	; 0xbd6 <__fp_cmp>
 a2e:	08 f4       	brcc	.+2      	; 0xa32 <__cmpsf2+0x6>
 a30:	81 e0       	ldi	r24, 0x01	; 1
 a32:	08 95       	ret

00000a34 <__divsf3>:
 a34:	0c d0       	rcall	.+24     	; 0xa4e <__divsf3x>
 a36:	0a c1       	rjmp	.+532    	; 0xc4c <__fp_round>
 a38:	02 d1       	rcall	.+516    	; 0xc3e <__fp_pscB>
 a3a:	40 f0       	brcs	.+16     	; 0xa4c <__divsf3+0x18>
 a3c:	f9 d0       	rcall	.+498    	; 0xc30 <__fp_pscA>
 a3e:	30 f0       	brcs	.+12     	; 0xa4c <__divsf3+0x18>
 a40:	21 f4       	brne	.+8      	; 0xa4a <__divsf3+0x16>
 a42:	5f 3f       	cpi	r21, 0xFF	; 255
 a44:	19 f0       	breq	.+6      	; 0xa4c <__divsf3+0x18>
 a46:	eb c0       	rjmp	.+470    	; 0xc1e <__fp_inf>
 a48:	51 11       	cpse	r21, r1
 a4a:	34 c1       	rjmp	.+616    	; 0xcb4 <__fp_szero>
 a4c:	ee c0       	rjmp	.+476    	; 0xc2a <__fp_nan>

00000a4e <__divsf3x>:
 a4e:	0f d1       	rcall	.+542    	; 0xc6e <__fp_split3>
 a50:	98 f3       	brcs	.-26     	; 0xa38 <__divsf3+0x4>

00000a52 <__divsf3_pse>:
 a52:	99 23       	and	r25, r25
 a54:	c9 f3       	breq	.-14     	; 0xa48 <__divsf3+0x14>
 a56:	55 23       	and	r21, r21
 a58:	b1 f3       	breq	.-20     	; 0xa46 <__divsf3+0x12>
 a5a:	95 1b       	sub	r25, r21
 a5c:	55 0b       	sbc	r21, r21
 a5e:	bb 27       	eor	r27, r27
 a60:	aa 27       	eor	r26, r26
 a62:	62 17       	cp	r22, r18
 a64:	73 07       	cpc	r23, r19
 a66:	84 07       	cpc	r24, r20
 a68:	38 f0       	brcs	.+14     	; 0xa78 <__divsf3_pse+0x26>
 a6a:	9f 5f       	subi	r25, 0xFF	; 255
 a6c:	5f 4f       	sbci	r21, 0xFF	; 255
 a6e:	22 0f       	add	r18, r18
 a70:	33 1f       	adc	r19, r19
 a72:	44 1f       	adc	r20, r20
 a74:	aa 1f       	adc	r26, r26
 a76:	a9 f3       	breq	.-22     	; 0xa62 <__divsf3_pse+0x10>
 a78:	33 d0       	rcall	.+102    	; 0xae0 <__divsf3_pse+0x8e>
 a7a:	0e 2e       	mov	r0, r30
 a7c:	3a f0       	brmi	.+14     	; 0xa8c <__divsf3_pse+0x3a>
 a7e:	e0 e8       	ldi	r30, 0x80	; 128
 a80:	30 d0       	rcall	.+96     	; 0xae2 <__divsf3_pse+0x90>
 a82:	91 50       	subi	r25, 0x01	; 1
 a84:	50 40       	sbci	r21, 0x00	; 0
 a86:	e6 95       	lsr	r30
 a88:	00 1c       	adc	r0, r0
 a8a:	ca f7       	brpl	.-14     	; 0xa7e <__divsf3_pse+0x2c>
 a8c:	29 d0       	rcall	.+82     	; 0xae0 <__divsf3_pse+0x8e>
 a8e:	fe 2f       	mov	r31, r30
 a90:	27 d0       	rcall	.+78     	; 0xae0 <__divsf3_pse+0x8e>
 a92:	66 0f       	add	r22, r22
 a94:	77 1f       	adc	r23, r23
 a96:	88 1f       	adc	r24, r24
 a98:	bb 1f       	adc	r27, r27
 a9a:	26 17       	cp	r18, r22
 a9c:	37 07       	cpc	r19, r23
 a9e:	48 07       	cpc	r20, r24
 aa0:	ab 07       	cpc	r26, r27
 aa2:	b0 e8       	ldi	r27, 0x80	; 128
 aa4:	09 f0       	breq	.+2      	; 0xaa8 <__divsf3_pse+0x56>
 aa6:	bb 0b       	sbc	r27, r27
 aa8:	80 2d       	mov	r24, r0
 aaa:	bf 01       	movw	r22, r30
 aac:	ff 27       	eor	r31, r31
 aae:	93 58       	subi	r25, 0x83	; 131
 ab0:	5f 4f       	sbci	r21, 0xFF	; 255
 ab2:	2a f0       	brmi	.+10     	; 0xabe <__divsf3_pse+0x6c>
 ab4:	9e 3f       	cpi	r25, 0xFE	; 254
 ab6:	51 05       	cpc	r21, r1
 ab8:	68 f0       	brcs	.+26     	; 0xad4 <__divsf3_pse+0x82>
 aba:	b1 c0       	rjmp	.+354    	; 0xc1e <__fp_inf>
 abc:	fb c0       	rjmp	.+502    	; 0xcb4 <__fp_szero>
 abe:	5f 3f       	cpi	r21, 0xFF	; 255
 ac0:	ec f3       	brlt	.-6      	; 0xabc <__divsf3_pse+0x6a>
 ac2:	98 3e       	cpi	r25, 0xE8	; 232
 ac4:	dc f3       	brlt	.-10     	; 0xabc <__divsf3_pse+0x6a>
 ac6:	86 95       	lsr	r24
 ac8:	77 95       	ror	r23
 aca:	67 95       	ror	r22
 acc:	b7 95       	ror	r27
 ace:	f7 95       	ror	r31
 ad0:	9f 5f       	subi	r25, 0xFF	; 255
 ad2:	c9 f7       	brne	.-14     	; 0xac6 <__divsf3_pse+0x74>
 ad4:	88 0f       	add	r24, r24
 ad6:	91 1d       	adc	r25, r1
 ad8:	96 95       	lsr	r25
 ada:	87 95       	ror	r24
 adc:	97 f9       	bld	r25, 7
 ade:	08 95       	ret
 ae0:	e1 e0       	ldi	r30, 0x01	; 1
 ae2:	66 0f       	add	r22, r22
 ae4:	77 1f       	adc	r23, r23
 ae6:	88 1f       	adc	r24, r24
 ae8:	bb 1f       	adc	r27, r27
 aea:	62 17       	cp	r22, r18
 aec:	73 07       	cpc	r23, r19
 aee:	84 07       	cpc	r24, r20
 af0:	ba 07       	cpc	r27, r26
 af2:	20 f0       	brcs	.+8      	; 0xafc <__divsf3_pse+0xaa>
 af4:	62 1b       	sub	r22, r18
 af6:	73 0b       	sbc	r23, r19
 af8:	84 0b       	sbc	r24, r20
 afa:	ba 0b       	sbc	r27, r26
 afc:	ee 1f       	adc	r30, r30
 afe:	88 f7       	brcc	.-30     	; 0xae2 <__divsf3_pse+0x90>
 b00:	e0 95       	com	r30
 b02:	08 95       	ret

00000b04 <__fixunssfsi>:
 b04:	bc d0       	rcall	.+376    	; 0xc7e <__fp_splitA>
 b06:	88 f0       	brcs	.+34     	; 0xb2a <__fixunssfsi+0x26>
 b08:	9f 57       	subi	r25, 0x7F	; 127
 b0a:	90 f0       	brcs	.+36     	; 0xb30 <__fixunssfsi+0x2c>
 b0c:	b9 2f       	mov	r27, r25
 b0e:	99 27       	eor	r25, r25
 b10:	b7 51       	subi	r27, 0x17	; 23
 b12:	a0 f0       	brcs	.+40     	; 0xb3c <__fixunssfsi+0x38>
 b14:	d1 f0       	breq	.+52     	; 0xb4a <__fixunssfsi+0x46>
 b16:	66 0f       	add	r22, r22
 b18:	77 1f       	adc	r23, r23
 b1a:	88 1f       	adc	r24, r24
 b1c:	99 1f       	adc	r25, r25
 b1e:	1a f0       	brmi	.+6      	; 0xb26 <__fixunssfsi+0x22>
 b20:	ba 95       	dec	r27
 b22:	c9 f7       	brne	.-14     	; 0xb16 <__fixunssfsi+0x12>
 b24:	12 c0       	rjmp	.+36     	; 0xb4a <__fixunssfsi+0x46>
 b26:	b1 30       	cpi	r27, 0x01	; 1
 b28:	81 f0       	breq	.+32     	; 0xb4a <__fixunssfsi+0x46>
 b2a:	c3 d0       	rcall	.+390    	; 0xcb2 <__fp_zero>
 b2c:	b1 e0       	ldi	r27, 0x01	; 1
 b2e:	08 95       	ret
 b30:	c0 c0       	rjmp	.+384    	; 0xcb2 <__fp_zero>
 b32:	67 2f       	mov	r22, r23
 b34:	78 2f       	mov	r23, r24
 b36:	88 27       	eor	r24, r24
 b38:	b8 5f       	subi	r27, 0xF8	; 248
 b3a:	39 f0       	breq	.+14     	; 0xb4a <__fixunssfsi+0x46>
 b3c:	b9 3f       	cpi	r27, 0xF9	; 249
 b3e:	cc f3       	brlt	.-14     	; 0xb32 <__fixunssfsi+0x2e>
 b40:	86 95       	lsr	r24
 b42:	77 95       	ror	r23
 b44:	67 95       	ror	r22
 b46:	b3 95       	inc	r27
 b48:	d9 f7       	brne	.-10     	; 0xb40 <__fixunssfsi+0x3c>
 b4a:	3e f4       	brtc	.+14     	; 0xb5a <__fixunssfsi+0x56>
 b4c:	90 95       	com	r25
 b4e:	80 95       	com	r24
 b50:	70 95       	com	r23
 b52:	61 95       	neg	r22
 b54:	7f 4f       	sbci	r23, 0xFF	; 255
 b56:	8f 4f       	sbci	r24, 0xFF	; 255
 b58:	9f 4f       	sbci	r25, 0xFF	; 255
 b5a:	08 95       	ret

00000b5c <__floatunsisf>:
 b5c:	e8 94       	clt
 b5e:	09 c0       	rjmp	.+18     	; 0xb72 <__floatsisf+0x12>

00000b60 <__floatsisf>:
 b60:	97 fb       	bst	r25, 7
 b62:	3e f4       	brtc	.+14     	; 0xb72 <__floatsisf+0x12>
 b64:	90 95       	com	r25
 b66:	80 95       	com	r24
 b68:	70 95       	com	r23
 b6a:	61 95       	neg	r22
 b6c:	7f 4f       	sbci	r23, 0xFF	; 255
 b6e:	8f 4f       	sbci	r24, 0xFF	; 255
 b70:	9f 4f       	sbci	r25, 0xFF	; 255
 b72:	99 23       	and	r25, r25
 b74:	a9 f0       	breq	.+42     	; 0xba0 <__floatsisf+0x40>
 b76:	f9 2f       	mov	r31, r25
 b78:	96 e9       	ldi	r25, 0x96	; 150
 b7a:	bb 27       	eor	r27, r27
 b7c:	93 95       	inc	r25
 b7e:	f6 95       	lsr	r31
 b80:	87 95       	ror	r24
 b82:	77 95       	ror	r23
 b84:	67 95       	ror	r22
 b86:	b7 95       	ror	r27
 b88:	f1 11       	cpse	r31, r1
 b8a:	f8 cf       	rjmp	.-16     	; 0xb7c <__floatsisf+0x1c>
 b8c:	fa f4       	brpl	.+62     	; 0xbcc <__floatsisf+0x6c>
 b8e:	bb 0f       	add	r27, r27
 b90:	11 f4       	brne	.+4      	; 0xb96 <__floatsisf+0x36>
 b92:	60 ff       	sbrs	r22, 0
 b94:	1b c0       	rjmp	.+54     	; 0xbcc <__floatsisf+0x6c>
 b96:	6f 5f       	subi	r22, 0xFF	; 255
 b98:	7f 4f       	sbci	r23, 0xFF	; 255
 b9a:	8f 4f       	sbci	r24, 0xFF	; 255
 b9c:	9f 4f       	sbci	r25, 0xFF	; 255
 b9e:	16 c0       	rjmp	.+44     	; 0xbcc <__floatsisf+0x6c>
 ba0:	88 23       	and	r24, r24
 ba2:	11 f0       	breq	.+4      	; 0xba8 <__floatsisf+0x48>
 ba4:	96 e9       	ldi	r25, 0x96	; 150
 ba6:	11 c0       	rjmp	.+34     	; 0xbca <__floatsisf+0x6a>
 ba8:	77 23       	and	r23, r23
 baa:	21 f0       	breq	.+8      	; 0xbb4 <__floatsisf+0x54>
 bac:	9e e8       	ldi	r25, 0x8E	; 142
 bae:	87 2f       	mov	r24, r23
 bb0:	76 2f       	mov	r23, r22
 bb2:	05 c0       	rjmp	.+10     	; 0xbbe <__floatsisf+0x5e>
 bb4:	66 23       	and	r22, r22
 bb6:	71 f0       	breq	.+28     	; 0xbd4 <__floatsisf+0x74>
 bb8:	96 e8       	ldi	r25, 0x86	; 134
 bba:	86 2f       	mov	r24, r22
 bbc:	70 e0       	ldi	r23, 0x00	; 0
 bbe:	60 e0       	ldi	r22, 0x00	; 0
 bc0:	2a f0       	brmi	.+10     	; 0xbcc <__floatsisf+0x6c>
 bc2:	9a 95       	dec	r25
 bc4:	66 0f       	add	r22, r22
 bc6:	77 1f       	adc	r23, r23
 bc8:	88 1f       	adc	r24, r24
 bca:	da f7       	brpl	.-10     	; 0xbc2 <__floatsisf+0x62>
 bcc:	88 0f       	add	r24, r24
 bce:	96 95       	lsr	r25
 bd0:	87 95       	ror	r24
 bd2:	97 f9       	bld	r25, 7
 bd4:	08 95       	ret

00000bd6 <__fp_cmp>:
 bd6:	99 0f       	add	r25, r25
 bd8:	00 08       	sbc	r0, r0
 bda:	55 0f       	add	r21, r21
 bdc:	aa 0b       	sbc	r26, r26
 bde:	e0 e8       	ldi	r30, 0x80	; 128
 be0:	fe ef       	ldi	r31, 0xFE	; 254
 be2:	16 16       	cp	r1, r22
 be4:	17 06       	cpc	r1, r23
 be6:	e8 07       	cpc	r30, r24
 be8:	f9 07       	cpc	r31, r25
 bea:	c0 f0       	brcs	.+48     	; 0xc1c <__fp_cmp+0x46>
 bec:	12 16       	cp	r1, r18
 bee:	13 06       	cpc	r1, r19
 bf0:	e4 07       	cpc	r30, r20
 bf2:	f5 07       	cpc	r31, r21
 bf4:	98 f0       	brcs	.+38     	; 0xc1c <__fp_cmp+0x46>
 bf6:	62 1b       	sub	r22, r18
 bf8:	73 0b       	sbc	r23, r19
 bfa:	84 0b       	sbc	r24, r20
 bfc:	95 0b       	sbc	r25, r21
 bfe:	39 f4       	brne	.+14     	; 0xc0e <__fp_cmp+0x38>
 c00:	0a 26       	eor	r0, r26
 c02:	61 f0       	breq	.+24     	; 0xc1c <__fp_cmp+0x46>
 c04:	23 2b       	or	r18, r19
 c06:	24 2b       	or	r18, r20
 c08:	25 2b       	or	r18, r21
 c0a:	21 f4       	brne	.+8      	; 0xc14 <__fp_cmp+0x3e>
 c0c:	08 95       	ret
 c0e:	0a 26       	eor	r0, r26
 c10:	09 f4       	brne	.+2      	; 0xc14 <__fp_cmp+0x3e>
 c12:	a1 40       	sbci	r26, 0x01	; 1
 c14:	a6 95       	lsr	r26
 c16:	8f ef       	ldi	r24, 0xFF	; 255
 c18:	81 1d       	adc	r24, r1
 c1a:	81 1d       	adc	r24, r1
 c1c:	08 95       	ret

00000c1e <__fp_inf>:
 c1e:	97 f9       	bld	r25, 7
 c20:	9f 67       	ori	r25, 0x7F	; 127
 c22:	80 e8       	ldi	r24, 0x80	; 128
 c24:	70 e0       	ldi	r23, 0x00	; 0
 c26:	60 e0       	ldi	r22, 0x00	; 0
 c28:	08 95       	ret

00000c2a <__fp_nan>:
 c2a:	9f ef       	ldi	r25, 0xFF	; 255
 c2c:	80 ec       	ldi	r24, 0xC0	; 192
 c2e:	08 95       	ret

00000c30 <__fp_pscA>:
 c30:	00 24       	eor	r0, r0
 c32:	0a 94       	dec	r0
 c34:	16 16       	cp	r1, r22
 c36:	17 06       	cpc	r1, r23
 c38:	18 06       	cpc	r1, r24
 c3a:	09 06       	cpc	r0, r25
 c3c:	08 95       	ret

00000c3e <__fp_pscB>:
 c3e:	00 24       	eor	r0, r0
 c40:	0a 94       	dec	r0
 c42:	12 16       	cp	r1, r18
 c44:	13 06       	cpc	r1, r19
 c46:	14 06       	cpc	r1, r20
 c48:	05 06       	cpc	r0, r21
 c4a:	08 95       	ret

00000c4c <__fp_round>:
 c4c:	09 2e       	mov	r0, r25
 c4e:	03 94       	inc	r0
 c50:	00 0c       	add	r0, r0
 c52:	11 f4       	brne	.+4      	; 0xc58 <__fp_round+0xc>
 c54:	88 23       	and	r24, r24
 c56:	52 f0       	brmi	.+20     	; 0xc6c <__fp_round+0x20>
 c58:	bb 0f       	add	r27, r27
 c5a:	40 f4       	brcc	.+16     	; 0xc6c <__fp_round+0x20>
 c5c:	bf 2b       	or	r27, r31
 c5e:	11 f4       	brne	.+4      	; 0xc64 <__fp_round+0x18>
 c60:	60 ff       	sbrs	r22, 0
 c62:	04 c0       	rjmp	.+8      	; 0xc6c <__fp_round+0x20>
 c64:	6f 5f       	subi	r22, 0xFF	; 255
 c66:	7f 4f       	sbci	r23, 0xFF	; 255
 c68:	8f 4f       	sbci	r24, 0xFF	; 255
 c6a:	9f 4f       	sbci	r25, 0xFF	; 255
 c6c:	08 95       	ret

00000c6e <__fp_split3>:
 c6e:	57 fd       	sbrc	r21, 7
 c70:	90 58       	subi	r25, 0x80	; 128
 c72:	44 0f       	add	r20, r20
 c74:	55 1f       	adc	r21, r21
 c76:	59 f0       	breq	.+22     	; 0xc8e <__fp_splitA+0x10>
 c78:	5f 3f       	cpi	r21, 0xFF	; 255
 c7a:	71 f0       	breq	.+28     	; 0xc98 <__fp_splitA+0x1a>
 c7c:	47 95       	ror	r20

00000c7e <__fp_splitA>:
 c7e:	88 0f       	add	r24, r24
 c80:	97 fb       	bst	r25, 7
 c82:	99 1f       	adc	r25, r25
 c84:	61 f0       	breq	.+24     	; 0xc9e <__fp_splitA+0x20>
 c86:	9f 3f       	cpi	r25, 0xFF	; 255
 c88:	79 f0       	breq	.+30     	; 0xca8 <__fp_splitA+0x2a>
 c8a:	87 95       	ror	r24
 c8c:	08 95       	ret
 c8e:	12 16       	cp	r1, r18
 c90:	13 06       	cpc	r1, r19
 c92:	14 06       	cpc	r1, r20
 c94:	55 1f       	adc	r21, r21
 c96:	f2 cf       	rjmp	.-28     	; 0xc7c <__fp_split3+0xe>
 c98:	46 95       	lsr	r20
 c9a:	f1 df       	rcall	.-30     	; 0xc7e <__fp_splitA>
 c9c:	08 c0       	rjmp	.+16     	; 0xcae <__fp_splitA+0x30>
 c9e:	16 16       	cp	r1, r22
 ca0:	17 06       	cpc	r1, r23
 ca2:	18 06       	cpc	r1, r24
 ca4:	99 1f       	adc	r25, r25
 ca6:	f1 cf       	rjmp	.-30     	; 0xc8a <__fp_splitA+0xc>
 ca8:	86 95       	lsr	r24
 caa:	71 05       	cpc	r23, r1
 cac:	61 05       	cpc	r22, r1
 cae:	08 94       	sec
 cb0:	08 95       	ret

00000cb2 <__fp_zero>:
 cb2:	e8 94       	clt

00000cb4 <__fp_szero>:
 cb4:	bb 27       	eor	r27, r27
 cb6:	66 27       	eor	r22, r22
 cb8:	77 27       	eor	r23, r23
 cba:	cb 01       	movw	r24, r22
 cbc:	97 f9       	bld	r25, 7
 cbe:	08 95       	ret

00000cc0 <__gesf2>:
 cc0:	8a df       	rcall	.-236    	; 0xbd6 <__fp_cmp>
 cc2:	08 f4       	brcc	.+2      	; 0xcc6 <__gesf2+0x6>
 cc4:	8f ef       	ldi	r24, 0xFF	; 255
 cc6:	08 95       	ret

00000cc8 <__mulsf3>:
 cc8:	0b d0       	rcall	.+22     	; 0xce0 <__mulsf3x>
 cca:	c0 cf       	rjmp	.-128    	; 0xc4c <__fp_round>
 ccc:	b1 df       	rcall	.-158    	; 0xc30 <__fp_pscA>
 cce:	28 f0       	brcs	.+10     	; 0xcda <__mulsf3+0x12>
 cd0:	b6 df       	rcall	.-148    	; 0xc3e <__fp_pscB>
 cd2:	18 f0       	brcs	.+6      	; 0xcda <__mulsf3+0x12>
 cd4:	95 23       	and	r25, r21
 cd6:	09 f0       	breq	.+2      	; 0xcda <__mulsf3+0x12>
 cd8:	a2 cf       	rjmp	.-188    	; 0xc1e <__fp_inf>
 cda:	a7 cf       	rjmp	.-178    	; 0xc2a <__fp_nan>
 cdc:	11 24       	eor	r1, r1
 cde:	ea cf       	rjmp	.-44     	; 0xcb4 <__fp_szero>

00000ce0 <__mulsf3x>:
 ce0:	c6 df       	rcall	.-116    	; 0xc6e <__fp_split3>
 ce2:	a0 f3       	brcs	.-24     	; 0xccc <__mulsf3+0x4>

00000ce4 <__mulsf3_pse>:
 ce4:	95 9f       	mul	r25, r21
 ce6:	d1 f3       	breq	.-12     	; 0xcdc <__mulsf3+0x14>
 ce8:	95 0f       	add	r25, r21
 cea:	50 e0       	ldi	r21, 0x00	; 0
 cec:	55 1f       	adc	r21, r21
 cee:	62 9f       	mul	r22, r18
 cf0:	f0 01       	movw	r30, r0
 cf2:	72 9f       	mul	r23, r18
 cf4:	bb 27       	eor	r27, r27
 cf6:	f0 0d       	add	r31, r0
 cf8:	b1 1d       	adc	r27, r1
 cfa:	63 9f       	mul	r22, r19
 cfc:	aa 27       	eor	r26, r26
 cfe:	f0 0d       	add	r31, r0
 d00:	b1 1d       	adc	r27, r1
 d02:	aa 1f       	adc	r26, r26
 d04:	64 9f       	mul	r22, r20
 d06:	66 27       	eor	r22, r22
 d08:	b0 0d       	add	r27, r0
 d0a:	a1 1d       	adc	r26, r1
 d0c:	66 1f       	adc	r22, r22
 d0e:	82 9f       	mul	r24, r18
 d10:	22 27       	eor	r18, r18
 d12:	b0 0d       	add	r27, r0
 d14:	a1 1d       	adc	r26, r1
 d16:	62 1f       	adc	r22, r18
 d18:	73 9f       	mul	r23, r19
 d1a:	b0 0d       	add	r27, r0
 d1c:	a1 1d       	adc	r26, r1
 d1e:	62 1f       	adc	r22, r18
 d20:	83 9f       	mul	r24, r19
 d22:	a0 0d       	add	r26, r0
 d24:	61 1d       	adc	r22, r1
 d26:	22 1f       	adc	r18, r18
 d28:	74 9f       	mul	r23, r20
 d2a:	33 27       	eor	r19, r19
 d2c:	a0 0d       	add	r26, r0
 d2e:	61 1d       	adc	r22, r1
 d30:	23 1f       	adc	r18, r19
 d32:	84 9f       	mul	r24, r20
 d34:	60 0d       	add	r22, r0
 d36:	21 1d       	adc	r18, r1
 d38:	82 2f       	mov	r24, r18
 d3a:	76 2f       	mov	r23, r22
 d3c:	6a 2f       	mov	r22, r26
 d3e:	11 24       	eor	r1, r1
 d40:	9f 57       	subi	r25, 0x7F	; 127
 d42:	50 40       	sbci	r21, 0x00	; 0
 d44:	8a f0       	brmi	.+34     	; 0xd68 <__mulsf3_pse+0x84>
 d46:	e1 f0       	breq	.+56     	; 0xd80 <__mulsf3_pse+0x9c>
 d48:	88 23       	and	r24, r24
 d4a:	4a f0       	brmi	.+18     	; 0xd5e <__mulsf3_pse+0x7a>
 d4c:	ee 0f       	add	r30, r30
 d4e:	ff 1f       	adc	r31, r31
 d50:	bb 1f       	adc	r27, r27
 d52:	66 1f       	adc	r22, r22
 d54:	77 1f       	adc	r23, r23
 d56:	88 1f       	adc	r24, r24
 d58:	91 50       	subi	r25, 0x01	; 1
 d5a:	50 40       	sbci	r21, 0x00	; 0
 d5c:	a9 f7       	brne	.-22     	; 0xd48 <__mulsf3_pse+0x64>
 d5e:	9e 3f       	cpi	r25, 0xFE	; 254
 d60:	51 05       	cpc	r21, r1
 d62:	70 f0       	brcs	.+28     	; 0xd80 <__mulsf3_pse+0x9c>
 d64:	5c cf       	rjmp	.-328    	; 0xc1e <__fp_inf>
 d66:	a6 cf       	rjmp	.-180    	; 0xcb4 <__fp_szero>
 d68:	5f 3f       	cpi	r21, 0xFF	; 255
 d6a:	ec f3       	brlt	.-6      	; 0xd66 <__mulsf3_pse+0x82>
 d6c:	98 3e       	cpi	r25, 0xE8	; 232
 d6e:	dc f3       	brlt	.-10     	; 0xd66 <__mulsf3_pse+0x82>
 d70:	86 95       	lsr	r24
 d72:	77 95       	ror	r23
 d74:	67 95       	ror	r22
 d76:	b7 95       	ror	r27
 d78:	f7 95       	ror	r31
 d7a:	e7 95       	ror	r30
 d7c:	9f 5f       	subi	r25, 0xFF	; 255
 d7e:	c1 f7       	brne	.-16     	; 0xd70 <__mulsf3_pse+0x8c>
 d80:	fe 2b       	or	r31, r30
 d82:	88 0f       	add	r24, r24
 d84:	91 1d       	adc	r25, r1
 d86:	96 95       	lsr	r25
 d88:	87 95       	ror	r24
 d8a:	97 f9       	bld	r25, 7
 d8c:	08 95       	ret

00000d8e <_exit>:
 d8e:	f8 94       	cli

00000d90 <__stop_program>:
 d90:	ff cf       	rjmp	.-2      	; 0xd90 <__stop_program>
